******************************************************************************
                  TI ARM Linker PC v18.1.2                     
******************************************************************************
>> Linked Mon Apr  1 14:05:03 2019

OUTPUT FILE NAME:   <MicPos_tcp.out>
ENTRY POINT SYMBOL: "_c_int00"  address: 0000ce95


MEMORY CONFIGURATION

         name            origin    length      used     unused   attr    fill
----------------------  --------  ---------  --------  --------  ----  --------
  FLASH                 00000000   00100000  0001385e  000ec7a2  R  X
  SRAM                  20000000   00040000  0000ffac  00030054  RW X


SEGMENT ALLOCATION MAP

run origin  load origin   length   init length attrs members
----------  ----------- ---------- ----------- ----- -------
00000000    00000000    00013868   00013868    r-x
  00000000    00000000    0000003c   0000003c    r-- .resetVecs
  00000040    00000040    000110e2   000110e2    r-x .text
  00011124    00011124    000023a8   000023a8    r-- .const
  000134d0    000134d0    00000398   00000398    r-- .cinit
20000000    20000000    00000360   00000000    rw-
  20000000    20000000    00000360   00000000    rw- .vecs
20000380    20000380    0000fc50   00000000    rw-
  20000380    20000380    0000ec28   00000000    rw- .bss
  2000efa8    2000efa8    00000824   00000000    rw- .data
  2000f7d0    2000f7d0    00000800   00000000    rw- .stack


SECTION ALLOCATION MAP

 output                                  attributes/
section   page    origin      length       input sections
--------  ----  ----------  ----------   ----------------
.text      0    00000040    000110e2     
                  00000040    00000c68     stk.aem4f : tcpin.oem4f (.text:TcpInput)
                  00000ca8    000008b8               : tcpout.oem4f (.text:TcpOutput)
                  00001560    00000430     sysbios.aem4f : BIOS.obj (.text:ti_sysbios_family_arm_m3_Hwi_excDumpRegs__I)
                  00001990    00000408     stk.aem4f : ipout.oem4f (.text:IPTxPacket)
                  00001d98    00000384               : ipin.oem4f (.text:IPRxPacket)
                  0000211c    0000034c     ti.targets.arm.rtsarm.aem4f : System.oem4f (.text:xdc_runtime_System_doPrint__I)
                  00002468    00000284     stk.aem4f : sock.oem4f (.text:SockSet)
                  000026ec    0000024c               : ipfrag.oem4f (.text:IPReasm)
                  00002938    0000023c               : icmpin.oem4f (.text:ICMPInput)
                  00002b74    00000238               : udp.oem4f (.text:UdpInput)
                  00002dac    00000204     Boot.aem4f : Boot_sysctl.oem4f (.text:ti_catalog_arm_cortexm4_tiva_ce_Boot_sysCtlClockFreqSetI__I)
                  00002fb0    000001fc     sysbios.aem4f : BIOS.obj (.text:ti_sysbios_family_arm_m3_Hwi_excHandlerMax__I)
                  000031ac    000001f4     stk.aem4f : sock.oem4f (.text:SockRecv)
                  000033a0    000001e8     tcpEcho.obj (.text:tcpHandler)
                  00003588    000001b8     drivers_tivaware.aem4f : EMACSnow.oem4f (.text:EMACSnow_NIMUInit)
                  00003740    000001b0     stk.aem4f : lliout.oem4f (.text:LLITxIpPacket)
                  000038f0    000001ac               : lliin.oem4f (.text:LLIRxPacket)
                  00003a9c    0000019c     os.aem4f : mem.oem4f (.text:mmAlloc)
                  00003c38    00000198     stk.aem4f : igmp.oem4f (.text:IGMPInput)
                  00003dd0    00000190               : sock.oem4f (.text:SockNew)
                  00003f60    00000174     netctrl_min_ipv4.aem4f : netctrl.oem4f (.text:NC_NetStart)
                  000040d4    00000004     stk.aem4f : bind.oem4f (.text:BindGetIF)
                  000040d8    00000174     sysbios.aem4f : BIOS.obj (.text:ti_sysbios_family_arm_m3_Hwi_excBusFault__I)
                  0000424c    00000170     stk.aem4f : rtc.oem4f (.text:RTCReport)
                  000043bc    0000016a               : sb.oem4f (.text:SBRead)
                  00004526    00000002     hal_userled_stub.aem4f : llled.oem4f (.text:LED_TOGGLE)
                  00004528    00000164     sysbios.aem4f : BIOS.obj (.text:ti_sysbios_family_arm_m3_Hwi_excUsageFault__I)
                  0000468c    00000160     stk.aem4f : sock.oem4f (.text:SockConnect)
                  000047ec    00000158     nettool_ipv4.aem4f : dhcpmain.oem4f (.text:DHCPOpen)
                  00004944    00000150     drivers_tivaware.aem4f : GPIOTiva.oem4f (.text:GPIO_setConfig)
                  00004a94    00000004     stk.aem4f : bind.oem4f (.text:BindGetNext)
                  00004a98    00000150     sysbios.aem4f : BIOS.obj (.text:ti_sysbios_knl_Task_Instance_finalize__E)
                  00004be8    00000148                   : BIOS.obj (.text:ti_sysbios_family_arm_m3_Hwi_excMemFault__I)
                  00004d30    00000144     stk.aem4f : bind.oem4f (.text:BindNew)
                  00004e74    00000140               : tcp.oem4f (.text:TcpTimeoutCheck)
                  00004fb4    0000013c     nettool_ipv4.aem4f : config.oem4f (.text:CfgAddEntry)
                  000050f0    0000013c     stk.aem4f : sockint.oem4f (.text:SockNotify)
                  0000522c    0000013c               : sock.oem4f (.text:SockSend)
                  00005368    00000138     sysbios.aem4f : BIOS.obj (.text:ti_sysbios_knl_Semaphore_pend__E)
                  000054a0    00000134     stk.aem4f : icmp.oem4f (.text:ICMPGenPacket)
                  000055d4    00000130     driverlib.lib : gpio.obj (.text:GPIOPadConfigSet)
                  00005704    0000012c     EK_TM4C1294XL.obj (.text:EK_TM4C1294XL_initEMAC)
                  00005830    00000124     stk.aem4f : sockpcb.oem4f (.text:SockPcbResolve)
                  00005954    00000124               : udp.oem4f (.text:UdpOutput)
                  00005a78    00000124     tcpEcho_pem4f.oem4f (.text:ti_ndk_config_Global_stackThread)
                  00005b9c    00000118     stk.aem4f : tcpout.oem4f (.text:TcpGenPacket)
                  00005cb4    00000118     ti.targets.arm.rtsarm.aem4f : Error.oem4f (.text:xdc_runtime_Error_policyDefault__E)
                  00005dcc    00000114     stk.aem4f : nimu.oem4f (.text:NIMUIoctl)
                  00005ee0    00000110               : node.oem4f (.text:NodeTreeFree)
                  00005ff0    00000110               : raw.oem4f (.text:RawInput)
                  00006100    0000010c               : rtable.oem4f (.text:RtFind)
                  0000620c    0000010a               : route.oem4f (.text:RtCreate)
                  00006316    00000002               : nat.oem4f (.text:NatMsg)
                  00006318    00000108     drivers_tivaware.aem4f : EMACSnow.oem4f (.text:EMACSnow_emacStart)
                  00006420    00000108     sysbios.aem4f : BIOS.obj (.text:ti_sysbios_family_arm_lm4_Timer_start__E)
                  00006528    00000104     os.aem4f : task.oem4f (.text:llEnter)
                  0000662c    00000102     nettool_ipv4.aem4f : dhcppkt.oem4f (.text:dhcpPacketProcess)
                  0000672e    00000102                        : inetaddr.oem4f (.text:inet_aton)
                  00006830    00000100     stk.aem4f : igmp.oem4f (.text:IGMPSendReply)
                  00006930    00000100     ti.targets.arm.rtsarm.aem4f : Core-mem.oem4f (.text:xdc_runtime_Core_createObject__I)
                  00006a30    000000fc     netctrl_min_ipv4.aem4f : netctrl.oem4f (.text:NetScheduler)
                  00006b2c    000000f8     stk.aem4f : pipe.oem4f (.text:PipeRecv)
                  00006c24    000000f8     ti.targets.arm.rtsarm.aem4f : Startup.oem4f (.text:xdc_runtime_Startup_startMods__I)
                  00006d1c    000000f8     tcpEcho_pem4f.oem4f (.text:xdc_runtime_System_printfExtend__I)
                  00006e14    000000f4     os.aem4f : task.oem4f (.text:TaskGetEnv)
                  00006f08    000000f4     sysbios.aem4f : m3_Hwi_asm.obj (.text:ti_sysbios_family_arm_m3_Hwi_dispatch__I)
                  00006ffc    00000004     os.aem4f : ossys.oem4f (.text:NDK_vsprintf)
                  00007000    000000f4     sysbios.aem4f : BIOS.obj (.text:ti_sysbios_knl_Task_Instance_init__E)
                  000070f4    000000f0     stk.aem4f : lliout.oem4f (.text:LLIGenArpPacket)
                  000071e4    000000f0               : sock.oem4f (.text:SockClose)
                  000072d4    00000004               : node.oem4f (.text:NodeSetRt)
                  000072d8    000000ec     sysbios.aem4f : BIOS.obj (.text:ti_sysbios_knl_Task_postInit__I)
                  000073c4    000000e8     os.aem4f : task.oem4f (.text:TaskSetEnv)
                  000074ac    000000e0     stk.aem4f : tcptime.oem4f (.text:TcpTimeoutRexmt)
                  0000758c    000000dc               : sb.oem4f (.text:SBWrite)
                  00007668    000000dc     nettool_ipv4.aem4f : dhcpsock.oem4f (.text:dhcpSocketOpen)
                  00007744    000000dc                        : dhcpsm.oem4f (.text:dhcpState)
                  00007820    000000d8     stk.aem4f : node.oem4f (.text:NodeAdd)
                  000078f8    000000d8               : tcpprot.oem4f (.text:TcpPrSetOption)
                  000079d0    000000d4     drivers_tivaware.aem4f : EMACSnow.oem4f (.text:EMACSnow_handleRx)
                  00007aa4    000000d4     stk.aem4f : sockpcb.oem4f (.text:SockPcbBind)
                  00007b78    000000d4     sysbios.aem4f : BIOS.obj (.text:ti_sysbios_heaps_HeapMem_alloc__E)
                  00007c4c    000000d1     stk.aem4f : nimu.oem4f (.text:NIMUReceivePacket)
                  00007d1d    00000001     --HOLE-- [fill = 0]
                  00007d1e    00000002     os.aem4f : task.oem4f (.text:_TaskInit)
                  00007d20    000000cc     stk.aem4f : icmp.oem4f (.text:ICMPSendRtAdv)
                  00007dec    000000cc     nettool_ipv4.aem4f : dhcpbild.oem4f (.text:dhcpBuildHeader)
                  00007eb8    000000cc                        : dhcpsm.oem4f (.text:dhcpIPAdd)
                  00007f84    000000cc                        : dhcppkt.oem4f (.text:dhcpVerifyMessage)
                  00008050    000000cc     ti.targets.arm.rtsarm.aem4f : Core-smem.oem4f (.text:xdc_runtime_Core_constructObject__I)
                  0000811c    000000c8     stk.aem4f : rawethsock.oem4f (.text:RawEthSockNew)
                  000081e4    000000c8     netctrl_min_ipv4.aem4f : netsrv.oem4f (.text:SPIpNet)
                  000082ac    00000004     stk.aem4f : rawethsock_prot.oem4f (.text:RawEthSockPrAttach)
                  000082b0    000000c8     sysbios.aem4f : BIOS.obj (.text:ti_sysbios_knl_Task_sleep__E)
                  00008378    000000c4     drivers_tivaware.aem4f : EMACSnow.oem4f (.text:EMACSnow_InitDMADescriptors)
                  0000843c    000000c4     stk.aem4f : igmp.oem4f (.text:IGMPJoinHostGroup)
                  00008500    000000c4     nettool_ipv4.aem4f : dhcpsm.oem4f (.text:StateBound)
                  000085c4    000000c0     tcpEcho.obj (.text:tcpWorker)
                  00008684    000000bc     stk.aem4f : sockpcb.oem4f (.text:SockPcbFind)
                  00008740    000000bc               : vlan.oem4f (.text:VLANDeinit)
                  000087fc    00000004               : rawethsock_prot.oem4f (.text:RawEthSockPrDetach)
                  00008800    000000bc     sysbios.aem4f : BIOS.obj (.text:ti_sysbios_family_arm_m3_Hwi_excDebugMon__I)
                  000088bc    00000004     os.aem4f : semaphore.oem4f (.text:SemPend)
                  000088c0    000000bc     sysbios.aem4f : BIOS.obj (.text:ti_sysbios_family_arm_m3_Hwi_excHardFault__I)
                  0000897c    000000b8     EK_TM4C1294XL.obj (.text:EK_TM4C1294XL_initGeneral)
                  00008a34    000000b8     stk.aem4f : icmpin.oem4f (.text:ICMPRevSrcRoute)
                  00008aec    000000b8               : lli.oem4f (.text:_LLITimeoutCheck)
                  00008ba4    00000004     os.aem4f : semaphore.oem4f (.text:SemPost)
                  00008ba8    000000b8     sysbios.aem4f : BIOS.obj (.text:ti_sysbios_knl_Task_exit__E)
                  00008c60    000000b4     stk.aem4f : tcptime.oem4f (.text:TcpTimeoutKeep)
                  00008d14    00000004     os.aem4f : semaphore.oem4f (.text:SemReset)
                  00008d18    000000b4     sysbios.aem4f : BIOS.obj (.text:ti_sysbios_knl_Task_checkStacks__E)
                  00008dcc    000000b0     stk.aem4f : rawethsock.oem4f (.text:RawEthSockSet)
                  00008e7c    000000ac               : rtable.oem4f (.text:RtTimeoutCheck)
                  00008f28    000000ac     tcpEcho_pem4f.oem4f (.text:ti_ndk_config_ip_init)
                  00008fd4    00000004     os.aem4f : task.oem4f (.text:TaskSelf)
                  00008fd8    000000ac     sysbios.aem4f : BIOS.obj (.text:ti_sysbios_family_arm_lm4_Timer_enableTiva__I)
                  00009084    000000a8     stk.aem4f : sockint.oem4f (.text:SockCreatePacket)
                  0000912c    00000004     os.aem4f : task.oem4f (.text:TaskSetPri)
                  00009130    000000a4     sysbios.aem4f : BIOS.obj (.text:ti_sysbios_knl_Task_setPri__E)
                  000091d4    000000a0     stk.aem4f : ip.oem4f (.text:IPGetRoute)
                  00009274    000000a0     auto_init.aem4f : auto_init.oem4f (.text)
                  00009314    000000a0     ti.targets.arm.rtsarm.aem4f : Text.oem4f (.text:xdc_runtime_Text_putMod__E)
                  000093b4    0000009e     stk.aem4f : nimu.oem4f (.text:NIMUAddEthernetHeader)
                  00009452    0000009e     nettool_ipv4.aem4f : dhcpbild.oem4f (.text:dhcpBuildRequest)
                  000094f0    0000009c     stk.aem4f : exec.oem4f (.text:ExecOpen)
                  0000958c    0000009c     rtsv7M4_T_le_v4SPD16_eabi.lib : memcpy_t2.asm.obj (.text)
                  00009628    0000009a     ti.targets.arm.rtsarm.aem4f : Text.oem4f (.text:xdc_runtime_Text_putSite__E)
                  000096c2    00000002     os.aem4f : task.oem4f (.text:_TaskShutdown)
                  000096c4    00000098     netctrl_min_ipv4.aem4f : netctrl.oem4f (.text:NC_SystemOpen)
                  0000975c    00000098                            : netsrv.oem4f (.text:ServiceScan)
                  000097f4    00000098     Boot.aem4f : Boot.oem4f (.text:ti_catalog_arm_cortexm4_tiva_ce_Boot_sysCtlClockFreqSet__E)
                  0000988c    00000004     hal_ser_stub.aem4f : llserstb.oem4f (.text:_llSerialInit)
                  00009890    00000098     sysbios.aem4f : BIOS.obj (.text:ti_sysbios_knl_Task_schedule__I)
                  00009928    00000096     tcpEcho.obj (.text:main)
                  000099be    00000002     hal_ser_stub.aem4f : llserstb.oem4f (.text:_llSerialServiceCheck)
                  000099c0    00000094     nettool_ipv4.aem4f : config.oem4f (.text:CfgRemoveEntry)
                  00009a54    00000004     rtsv7M4_T_le_v4SPD16_eabi.lib : exit.c.obj (.text:abort:abort)
                  00009a58    00000094     sysbios.aem4f : BIOS.obj (.text:ti_sysbios_family_arm_m3_Hwi_Instance_init__E)
                  00009aec    00000004     stk.aem4f : listlib.oem4f (.text:list_get_head)
                  00009af0    00000094     sysbios.aem4f : BIOS.obj (.text:ti_sysbios_family_arm_m3_Hwi_initNVIC__E)
                  00009b84    00000090     nettool_ipv4.aem4f : config.oem4f (.text:CfgExecute)
                  00009c14    00000090     stk.aem4f : igmp.oem4f (.text:IGMPMsg)
                  00009ca4    00000090     os.aem4f : mem.oem4f (.text:mmBulkAlloc)
                  00009d34    00000004     stk.aem4f : listlib.oem4f (.text:list_get_next)
                  00009d38    00000090     sysbios.aem4f : BIOS.obj (.text:ti_sysbios_knl_Task_Module_startup__E)
                  00009dc8    00000090                   : BIOS.obj (.text:ti_sysbios_knl_Task_startCore__E)
                  00009e58    0000008c     drivers_tivaware.aem4f : GPIOTiva.oem4f (.text:GPIO_init)
                  00009ee4    0000008c     stk.aem4f : ip.oem4f (.text:IPMsg)
                  00009f70    0000008c     os.aem4f : mem.oem4f (.text:_mmInit)
                  00009ffc    0000008c              : mem.oem4f (.text:mmInitPage)
                  0000a088    0000008c     sysbios.aem4f : m3_TaskSupport_asm.obj (.text:ti_sysbios_family_arm_m3_TaskSupport_buildTaskStack)
                  0000a114    0000008a     netctrl_min_ipv4.aem4f : netsrv.oem4f (.text:SPRoute)
                  0000a19e    00000002     hal_ser_stub.aem4f : llserstb.oem4f (.text:_llSerialShutdown)
                  0000a1a0    00000088     netctrl_min_ipv4.aem4f : netsrv.oem4f (.text:ServiceSpawn)
                  0000a228    00000088     stk.aem4f : sockpcb.oem4f (.text:SockPcbCtlError)
                  0000a2b0    00000086     nettool_ipv4.aem4f : dhcpsm.oem4f (.text:StateRequesting)
                  0000a336    00000002     hal_userled_stub.aem4f : llled.oem4f (.text:_llUserLedInit)
                  0000a338    00000084     nettool_ipv4.aem4f : config.oem4f (.text:CfgGetEntry)
                  0000a3bc    00000084     drivers_tivaware.aem4f : EMACSnow.oem4f (.text:EMACSnow_processPhyInterrupt)
                  0000a440    00000084     stk.aem4f : tcpprot.oem4f (.text:TcpPrAttach)
                  0000a4c4    00000084     os.aem4f : mem.oem4f (.text:mmBulkFree)
                  0000a548    00000084              : mem.oem4f (.text:mmFree)
                  0000a5cc    00000004     tcpEcho_pem4f.oem4f (.text:ti_ndk_config_Global_NetworkOpen)
                  0000a5d0    00000084     sysbios.aem4f : BIOS.obj (.text:ti_sysbios_family_arm_m3_Hwi_postInit__I)
                  0000a654    00000082     nettool_ipv4.aem4f : dhcpsm.oem4f (.text:StateRenewRebind)
                  0000a6d6    00000002     hal_userled_stub.aem4f : llled.oem4f (.text:_llUserLedShutdown)
                  0000a6d8    00000080     drivers_tivaware.aem4f : EMACSnow.oem4f (.text:EMACSnow_emacStop)
                  0000a758    00000080                            : EMACSnow.oem4f (.text:EMACSnow_processPendingTx)
                  0000a7d8    00000080     stk.aem4f : lli.oem4f (.text:LLINew)
                  0000a858    00000080     netctrl_min_ipv4.aem4f : netsrv.oem4f (.text:NS_BootTask)
                  0000a8d8    00000080     stk.aem4f : pbm.oem4f (.text:PBM_alloc)
                  0000a958    00000080               : raw.oem4f (.text:RawOutput)
                  0000a9d8    0000007f     tcpEcho_pem4f.oem4f (.text:ti_ndk_config_Global_NetworkIPAddr)
                  0000aa57    00000001     --HOLE-- [fill = 0]
                  0000aa58    0000007e     stk.aem4f : fileuser.oem4f (.text:fdClose)
                  0000aad6    00000002     rtsv7M4_T_le_v4SPD16_eabi.lib : _lock.c.obj (.text:_nop)
                  0000aad8    0000007c     nettool_ipv4.aem4f : config.oem4f (.text:CfgGetNextEntry)
                  0000ab54    0000007c     drivers_tivaware.aem4f : EMACSnow.oem4f (.text:EMACSnow_hwiIntFxn)
                  0000abd0    0000007c     stk.aem4f : igmp.oem4f (.text:IGMPDoMCast)
                  0000ac4c    0000007c               : igmp.oem4f (.text:IGMPJoin)
                  0000acc8    0000007c               : socket.oem4f (.text:NDK_setsockopt)
                  0000ad44    0000007c               : nimu.oem4f (.text:NIMURegister)
                  0000adc0    0000007c               : pbm.oem4f (.text:PBM_free)
                  0000ae3c    00000004     tcpEcho_pem4f.oem4f (.text:ti_sysbios_BIOS_RtsGateProxy_enter__E)
                  0000ae40    0000007c     sysbios.aem4f : BIOS.obj (.text:ti_sysbios_heaps_HeapMem_free__E)
                  0000aebc    0000007a     stk.aem4f : sock.oem4f (.text:SockAccept)
                  0000af36    0000007a     rtsv7M4_T_le_v4SPD16_eabi.lib : memset_t2.asm.obj (.text)
                  0000afb0    00000078     driverlib.lib : emac.obj (.text:EMACInit)
                  0000b028    00000078     stk.aem4f : socket.oem4f (.text:NDK_sendto)
                  0000b0a0    00000078               : tcptime.oem4f (.text:TcpXmitTimer)
                  0000b118    00000078               : fileuser.oem4f (.text:fdOpenSession)
                  0000b190    00000078     os.aem4f : task.oem4f (.text:llExit)
                  0000b208    00000076     stk.aem4f : pipe.oem4f (.text:PipeSend)
                  0000b27e    00000002     hal_ser_stub.aem4f : llserstb.oem4f (.text:llSerialService)
                  0000b280    00000075     stk.aem4f : tcptime.oem4f (.text:TcpTimeoutSackRexmt)
                  0000b2f5    00000001     --HOLE-- [fill = 0]
                  0000b2f6    00000002     rtsv7M4_T_le_v4SPD16_eabi.lib : div0.asm.obj (.text)
                  0000b2f8    00000074     stk.aem4f : igmp.oem4f (.text:IGMPLeaveHostGroup)
                  0000b36c    00000074               : nimu.oem4f (.text:NIMUShutdown)
                  0000b3e0    00000074               : raweth.oem4f (.text:RawEthRxPacket)
                  0000b454    00000074               : sockpcb.oem4f (.text:SockPcbConnect)
                  0000b4c8    00000074     tcpEchoHooks.obj (.text:netOpenHook)
                  0000b53c    00000072     os.aem4f : semaphore.oem4f (.text:SemCreateBinary)
                  0000b5ae    00000070     stk.aem4f : socket.oem4f (.text:NDK_accept)
                  0000b61e    00000070               : socket.oem4f (.text:NDK_send)
                  0000b68e    00000002     tcpEcho_pem4f.oem4f (.text:ti_ndk_config_Global_NetworkClose)
                  0000b690    00000070     stk.aem4f : rtable.oem4f (.text:RtFlush)
                  0000b700    00000070     netctrl_min_ipv4.aem4f : netsrv.oem4f (.text:SPConfig)
                  0000b770    00000070     stk.aem4f : sock.oem4f (.text:SockShutdown)
                  0000b7e0    00000070     nettool_ipv4.aem4f : dhcptags.oem4f (.text:dhcpDecodeType)
                  0000b850    00000070     sysbios.aem4f : BIOS.obj (.text:ti_sysbios_knl_Clock_workFunc__E)
                  0000b8c0    0000006e     stk.aem4f : socket.oem4f (.text:NDK_recv)
                  0000b92e    00000002     tcpEcho_pem4f.oem4f (.text:ti_sysbios_BIOS_nullFunc__I)
                  0000b930    0000006e     stk.aem4f : rtable.oem4f (.text:RtWalkNext)
                  0000b99e    0000006e               : sockpcb.oem4f (.text:SockPcbFindRaw)
                  0000ba0c    0000006d               : node.oem4f (.text:NodeNew)
                  0000ba79    00000001     --HOLE-- [fill = 0]
                  0000ba7a    00000002     tcpEcho_pem4f.oem4f (.text:xdc_runtime_Startup_reset__I)
                  0000ba7c    0000006d     ti.targets.arm.rtsarm.aem4f : System.oem4f (.text:xdc_runtime_System_formatNum__I)
                  0000bae9    00000003     --HOLE-- [fill = 0]
                  0000baec    0000006c     os.aem4f : ossys.oem4f (.text:DbgPrintf)
                  0000bb58    0000006c     stk.aem4f : node.oem4f (.text:NodeTreeNew)
                  0000bbc4    0000006c               : raweth.oem4f (.text:RawEthTxPacket)
                  0000bc30    0000006c               : udp.oem4f (.text:UdpChecksum)
                  0000bc9c    00000004     tcpEcho_pem4f.oem4f (.text:ti_sysbios_BIOS_RtsGateProxy_leave__E)
                  0000bca0    0000006c     sysbios.aem4f : BIOS.obj (.text:ti_sysbios_knl_Swi_restoreHwi__E)
                  0000bd0c    0000006c     ti.targets.arm.rtsarm.aem4f : Error.oem4f (.text:xdc_runtime_Error_print__E)
                  0000bd78    0000006c                                 : Memory.oem4f (.text:xdc_runtime_Memory_alloc__E)
                  0000bde4    0000006a     stk.aem4f : tcpprot.oem4f (.text:TcpPrInherit)
                  0000be4e    00000068               : socket.oem4f (.text:NDK_socket)
                  0000beb6    00000002     --HOLE-- [fill = 0]
                  0000beb8    00000068               : pbm.oem4f (.text:PBM_open)
                  0000bf20    00000068               : sock.oem4f (.text:SockListen)
                  0000bf88    00000068               : rtable.oem4f (.text:_RtNodeInsert)
                  0000bff0    00000068     rtsv7M4_T_le_v4SPD16_eabi.lib : copy_decompress_lzss.c.obj (.text:decompress:lzss:__TI_decompress_lzss)
                  0000c058    00000066     ti.targets.arm.rtsarm.aem4f : Core-mem.oem4f (.text:xdc_runtime_Core_deleteObject__I)
                  0000c0be    00000002     --HOLE-- [fill = 0]
                  0000c0c0    00000064     nettool_ipv4.aem4f : config.oem4f (.text:CfgFree)
                  0000c124    00000064     drivers_tivaware.aem4f : GPIOTiva.oem4f (.text:GPIO_hwiIntFxn)
                  0000c188    00000064     stk.aem4f : pbm.oem4f (.text:PBMQ_enq)
                  0000c1ec    00000064               : sockint.oem4f (.text:SockSpawnAbort)
                  0000c250    00000064     hal_timer_bios.aem4f : lltimer.oem4f (.text:llTimerTick)
                  0000c2b4    00000004     sysbios.aem4f : BIOS.obj (.text:ti_sysbios_family_arm_lm4_Timer_masterEnable__I)
                  0000c2b8    00000064                   : BIOS.obj (.text:ti_sysbios_family_arm_lm4_Timer_Module_startup__E)
                  0000c31c    00000064     tcpEcho_pem4f.oem4f (.text:ti_sysbios_family_arm_m3_Hwi_create)
                  0000c380    00000064     sysbios.aem4f : BIOS.obj (.text:ti_sysbios_family_arm_m3_Hwi_dispatchC__I)
                  0000c3e4    00000004     tcpEcho_pem4f.oem4f (.text:ti_sysbios_family_arm_m3_Hwi_delete)
                  0000c3e8    00000064     sysbios.aem4f : BIOS.obj (.text:ti_sysbios_knl_Semaphore_post__E)
                  0000c44c    00000064     stk.aem4f : lliin.oem4f (.text:updateRtTable)
                  0000c4b0    00000062               : ipin.oem4f (.text:IPRouteIP)
                  0000c512    00000002     --HOLE-- [fill = 0]
                  0000c514    00000062               : sb.oem4f (.text:SBNew)
                  0000c576    00000002     --HOLE-- [fill = 0]
                  0000c578    00000060     nettool_ipv4.aem4f : config.oem4f (.text:CfgGetEntryCnt)
                  0000c5d8    00000060     stk.aem4f : file.oem4f (.text:FdWaitEvent)
                  0000c638    00000060               : nimu.oem4f (.text:NIMUUnregister)
                  0000c698    00000060               : node.oem4f (.text:NodeFind)
                  0000c6f8    00000060               : rtc.oem4f (.text:RTCMsg)
                  0000c758    00000060               : tcp.oem4f (.text:TcpChecksum)
                  0000c7b8    00000060     nettool_ipv4.aem4f : dhcptags.oem4f (.text:dhcpBuildOptions)
                  0000c818    0000005e     stk.aem4f : route.oem4f (.text:RtRemove)
                  0000c876    0000005e     nettool_ipv4.aem4f : dhcpsm.oem4f (.text:StateSelecting)
                  0000c8d4    0000005e     stk.aem4f : vlan.oem4f (.text:VLANReceivePacket)
                  0000c932    00000002     --HOLE-- [fill = 0]
                  0000c934    0000005c     nettool_ipv4.aem4f : config.oem4f (.text:CfgSetExecuteOrder)
                  0000c990    0000005c     stk.aem4f : nimu.oem4f (.text:NIMUIoctlSpecialCmd)
                  0000c9ec    0000005c     netctrl_min_ipv4.aem4f : netsrv.oem4f (.text:SPService)
                  0000ca48    0000005c     tcpEcho_pem4f.oem4f (.text:ti_sysbios_knl_Swi_create)
                  0000caa4    00000004     tcpEcho_pem4f.oem4f (.text:ti_sysbios_family_arm_m3_TaskSupport_Module__startupDone__S)
                  0000caa8    0000005c     sysbios.aem4f : BIOS.obj (.text:ti_sysbios_knl_Swi_run__I)
                  0000cb04    00000004     tcpEcho_pem4f.oem4f (.text:ti_sysbios_heaps_HeapMem_Module_GateProxy_enter__E)
                  0000cb08    0000005c     sysbios.aem4f : BIOS.obj (.text:ti_sysbios_knl_Swi_schedule__I)
                  0000cb64    0000005c     tcpEcho_pem4f.oem4f (.text:ti_sysbios_knl_Task_create)
                  0000cbc0    0000005c     sysbios.aem4f : BIOS.obj (.text:ti_sysbios_knl_Task_unblockI__E)
                  0000cc1c    0000005b     ti.targets.arm.rtsarm.aem4f : Text.oem4f (.text:xdc_runtime_Text_putLab__E)
                  0000cc77    00000001     --HOLE-- [fill = 0]
                  0000cc78    0000005a     stk.aem4f : route.oem4f (.text:RtRedirect)
                  0000ccd2    0000005a               : tcpprot.oem4f (.text:TcpValidateMetrics)
                  0000cd2c    0000005a     nettool_ipv4.aem4f : dhcpbild.oem4f (.text:dhcpBuildDecline)
                  0000cd86    0000005a     os.aem4f : mem.oem4f (.text:mmCopy)
                  0000cde0    0000005a     tcpEcho_pem4f.oem4f (.text:ti_ndk_config_tcp_init)
                  0000ce3a    00000002     --HOLE-- [fill = 0]
                  0000ce3c    00000058     stk.aem4f : bind.oem4f (.text:BindFree)
                  0000ce94    00000058     boot.aem4f : boot.oem4f (.text)
                  0000ceec    00000058     driverlib.lib : emac.obj (.text:EMACPHYConfigSet)
                  0000cf44    00000058     rtsv7M4_T_le_v4SPD16_eabi.lib : hostwrite.c.obj (.text:HOSTwrite)
                  0000cf9c    00000058     stk.aem4f : igmp.oem4f (.text:IGMPTimer)
                  0000cff4    00000058     os.aem4f : semaphore.oem4f (.text:SemCreate)
                  0000d04c    00000058     sysbios.aem4f : m3_Hwi_asm_switch.obj (.text:ti_sysbios_family_arm_m3_Hwi_initStacks__E)
                  0000d0a4    00000056     driverlib.lib : gpio.obj (.text:GPIOIntTypeSet)
                  0000d0fa    00000002     --HOLE-- [fill = 0]
                  0000d0fc    00000054     nettool_ipv4.aem4f : config.oem4f (.text:CfgEntryDeRef)
                  0000d150    00000054     stk.aem4f : igmp.oem4f (.text:IGMPLeave)
                  0000d1a4    00000054               : rawethsock_pcb.oem4f (.text:RawEthSockPcbAttach)
                  0000d1f8    00000054               : sockpcb.oem4f (.text:SockCleanPcb)
                  0000d24c    00000054               : tcptime.oem4f (.text:TcpTimeoutPersist)
                  0000d2a0    00000054     sysbios.aem4f : BIOS.obj (.text:ti_sysbios_family_arm_lm4_Timer_initDevice__I)
                  0000d2f4    00000004     tcpEcho_pem4f.oem4f (.text:ti_sysbios_heaps_HeapMem_Module_GateProxy_leave__E)
                  0000d2f8    00000054     sysbios.aem4f : BIOS.obj (.text:ti_sysbios_knl_Swi_Instance_init__E)
                  0000d34c    00000054     ti.targets.arm.rtsarm.aem4f : Assert.oem4f (.text:xdc_runtime_Assert_raise__I)
                  0000d3a0    00000052     stk.aem4f : tcpprot.oem4f (.text:TcpPrDetach)
                  0000d3f2    00000002     --HOLE-- [fill = 0]
                  0000d3f4    00000050     drivers_tivaware.aem4f : GPIOTiva.oem4f (.text:GPIO_setCallback)
                  0000d444    00000050     stk.aem4f : socket.oem4f (.text:NDK_bind)
                  0000d494    00000050               : route.oem4f (.text:RtNew)
                  0000d4e4    00000050     driverlib.lib : sysctl.obj (.text:SysCtlPeripheralReset)
                  0000d534    00000050     Boot.aem4f : Boot_sysctl.oem4f (.text:_SysCtlFrequencyGet)
                  0000d584    00000004     tcpEcho_pem4f.oem4f (.text:ti_sysbios_knl_Clock_TimerProxy_getMaxTicks__E)
                  0000d588    00000050     sysbios.aem4f : BIOS.obj (.text:ti_sysbios_family_arm_m3_Hwi_Module_startup__E)
                  0000d5d8    00000050                   : BIOS.obj (.text:ti_sysbios_knl_Clock_Instance_init__E)
                  0000d628    00000050     ti.targets.arm.rtsarm.aem4f : Startup.oem4f (.text:xdc_runtime_Startup_exec__E)
                  0000d678    00000050                                 : Text.oem4f (.text:xdc_runtime_Text_visitRope2__I)
                  0000d6c8    0000004e     stk.aem4f : node.oem4f (.text:NodeDeRef)
                  0000d716    0000004e     nettool_ipv4.aem4f : config.oem4f (.text:_CfgEntryScan)
                  0000d764    0000004c                        : ipaddr.oem4f (.text:NtAddNetwork)
                  0000d7b0    0000004c     stk.aem4f : sockint.oem4f (.text:SockValidateRoute)
                  0000d7fc    0000004c     rtsv7M4_T_le_v4SPD16_eabi.lib : cpy_tbl.c.obj (.text:copy_in)
                  0000d848    0000004c     sysbios.aem4f : BIOS.obj (.text:ti_sysbios_heaps_HeapMem_getStats__E)
                  0000d894    00000004     tcpEcho_pem4f.oem4f (.text:ti_sysbios_knl_Queue_destruct)
                  0000d898    0000004c     sysbios.aem4f : BIOS.obj (.text:ti_sysbios_knl_Swi_runLoop__I)
                  0000d8e4    00000004     tcpEcho_pem4f.oem4f (.text:ti_sysbios_knl_Semaphore_delete)
                  0000d8e8    0000004c     sysbios.aem4f : BIOS.obj (.text:ti_sysbios_knl_Task_allBlockedFunction__I)
                  0000d934    0000004a     netctrl_min_ipv4.aem4f : netsrv.oem4f (.text:ServiceKill)
                  0000d97e    0000004a     stk.aem4f : sock.oem4f (.text:SockDisconnect)
                  0000d9c8    0000004a               : timer.oem4f (.text:TimerNew)
                  0000da12    00000048     nettool_ipv4.aem4f : config.oem4f (.text:CfgNew)
                  0000da5a    00000002     --HOLE-- [fill = 0]
                  0000da5c    00000048     driverlib.lib : gpio.obj (.text:GPIOPinConfigure)
                  0000daa4    00000048     stk.aem4f : lli.oem4f (.text:LLIMsg)
                  0000daec    00000048               : node.oem4f (.text:NodeWalk)
                  0000db34    00000048               : rawethsock_pcb.oem4f (.text:RawEthSockPcbDetach)
                  0000db7c    00000048               : sockpcb.oem4f (.text:SockPcbResolveChain)
                  0000dbc4    00000048               : tcpprot.oem4f (.text:TcpDrop)
                  0000dc0c    00000048               : lli.oem4f (.text:_LLIExpListInsert)
                  0000dc54    00000048               : rtable.oem4f (.text:_RtExpListInsert)
                  0000dc9c    00000048               : file.oem4f (.text:fdint_lockfd)
                  0000dce4    00000004     tcpEcho_pem4f.oem4f (.text:ti_sysbios_knl_Semaphore_destruct)
                  0000dce8    00000048     sysbios.aem4f : BIOS.obj (.text:ti_sysbios_family_arm_lm4_Timer_enableTimers__I)
                  0000dd30    00000048                   : BIOS.obj (.text:ti_sysbios_family_arm_m3_Hwi_disableInterrupt__E)
                  0000dd78    00000048                   : BIOS.obj (.text:ti_sysbios_family_arm_m3_Hwi_enableInterrupt__E)
                  0000ddc0    00000048                   : BIOS.obj (.text:ti_sysbios_family_arm_m3_Hwi_excReserved__I)
                  0000de08    00000048                   : BIOS.obj (.text:ti_sysbios_knl_Task_deleteTerminatedTasksFunc__I)
                  0000de50    00000046     nettool_ipv4.aem4f : ipaddr.oem4f (.text:NtIfIdx2Ip)
                  0000de96    00000046     stk.aem4f : rawethsock.oem4f (.text:RawEthSockSend)
                  0000dedc    00000046               : tcpprot.oem4f (.text:TcpPrCtlError)
                  0000df22    00000046     os.aem4f : mem.oem4f (.text:mmZeroInit)
                  0000df68    00000046     ti.targets.arm.rtsarm.aem4f : Core-params.oem4f (.text:xdc_runtime_Core_assignParams__I)
                  0000dfae    00000002     --HOLE-- [fill = 0]
                  0000dfb0    00000044     drivers_tivaware.aem4f : EMACSnow.oem4f (.text:EMACSnow_processTransmitted)
                  0000dff4    00000044     stk.aem4f : icmp.oem4f (.text:ICMPChecksum)
                  0000e038    00000044               : ipfrag.oem4f (.text:IPReasmFree)
                  0000e07c    00000044               : lli.oem4f (.text:LLIGetValidTime)
                  0000e0c0    00000044               : rtable.oem4f (.text:RouteMsg)
                  0000e104    00000044               : rtable.oem4f (.text:RtWalkEnd)
                  0000e148    00000044               : sockpcb.oem4f (.text:SockPcbDetach)
                  0000e18c    00000044               : timer.oem4f (.text:TimerListInsert)
                  0000e1d0    00000044     hal_timer_bios.aem4f : lltimer.oem4f (.text:llTimerGetTime)
                  0000e214    00000004     tcpEcho_pem4f.oem4f (.text:ti_sysbios_knl_Swi_delete)
                  0000e218    00000044     sysbios.aem4f : BIOS.obj (.text:ti_sysbios_family_arm_lm4_Timer_isrStub__E)
                  0000e25c    00000004     tcpEcho_pem4f.oem4f (.text:ti_sysbios_knl_Task_delete)
                  0000e260    00000044     sysbios.aem4f : BIOS.obj (.text:ti_sysbios_family_arm_m3_Hwi_getStackInfo__E)
                  0000e2a4    00000004     ti.targets.arm.rtsarm.aem4f : Error.oem4f (.text:xdc_runtime_Error_getMsg__E)
                  0000e2a8    00000044     sysbios.aem4f : BIOS.obj (.text:ti_sysbios_knl_Swi_post__E)
                  0000e2ec    00000044     ti.targets.arm.rtsarm.aem4f : Error.oem4f (.text:xdc_runtime_Error_setX__E)
                  0000e330    00000044                                 : SysMin.oem4f (.text:xdc_runtime_SysMin_flush__E)
                  0000e374    00000044                                 : Text.oem4f (.text:xdc_runtime_Text_xprintf__I)
                  0000e3b8    00000042     stk.aem4f : socket.oem4f (.text:NDK_listen)
                  0000e3fa    00000042               : tcpprot.oem4f (.text:TcpPrSendOOB)
                  0000e43c    00000042               : fileuser.oem4f (.text:fdCloseSession)
                  0000e47e    00000002     --HOLE-- [fill = 0]
                  0000e480    00000040               : lliin.oem4f (.text:LLIValidateRoute)
                  0000e4c0    00000040               : pbm.oem4f (.text:PBM_copy)
                  0000e500    00000040               : sockpcb.oem4f (.text:SockPcbRtChange)
                  0000e540    00000040               : tcpprot.oem4f (.text:TcpPrSend)
                  0000e580    00000040     rtsv7M4_T_le_v4SPD16_eabi.lib : u_divt2.asm.obj (.text)
                  0000e5c0    00000040     sysbios.aem4f : BIOS.obj (.text:ti_sysbios_family_arm_lm4_Timer_startup__E)
                  0000e600    00000040                   : BIOS.obj (.text:ti_sysbios_heaps_HeapMem_Instance_init__E)
                  0000e640    0000003e     nettool_ipv4.aem4f : dhcpmain.oem4f (.text:DHCPClose)
                  0000e67e    00000002     --HOLE-- [fill = 0]
                  0000e680    0000003e     stk.aem4f : nimu.oem4f (.text:NIMUAllocateName)
                  0000e6be    0000003e     os.aem4f : task.oem4f (.text:TaskCreate)
                  0000e6fc    0000003e     stk.aem4f : tcpprot.oem4f (.text:TcpPrDisconnect)
                  0000e73a    0000003e               : file.oem4f (.text:fdint_unlockfd)
                  0000e778    0000003c     nettool_ipv4.aem4f : config.oem4f (.text:CfgEntryGetData)
                  0000e7b4    0000003c     driverlib.lib : emac.obj (.text:EMACIntDisable)
                  0000e7f0    0000003c     stk.aem4f : node.oem4f (.text:NodeUpdatePL)
                  0000e82c    0000003c               : rtable.oem4f (.text:RtWalkBegin)
                  0000e868    0000003c               : tcpprot.oem4f (.text:TcpPrConnect)
                  0000e8a4    0000003c               : tcptime.oem4f (.text:TcpSetPersist)
                  0000e8e0    0000003c               : rtc.oem4f (.text:_RTCSendRtAdv)
                  0000e91c    0000003c               : rtable.oem4f (.text:_RtNodeRemove)
                  0000e958    0000003c     hal_timer_bios.aem4f : lltimer.oem4f (.text:_llTimerInit)
                  0000e994    00000004     ti.targets.arm.rtsarm.aem4f : Error.oem4f (.text:xdc_runtime_Error_getSite__E)
                  0000e998    0000003c     sysbios.aem4f : BIOS.obj (.text:ti_sysbios_family_arm_m3_Hwi_excSvCall__I)
                  0000e9d4    00000004     tcpEcho_pem4f.oem4f (.text:xdc_runtime_System_Module_GateProxy_enter__E)
                  0000e9d8    0000003c     sysbios.aem4f : BIOS.obj (.text:ti_sysbios_heaps_HeapMem_init__I)
                  0000ea14    00000004     tcpEcho_pem4f.oem4f (.text:xdc_runtime_System_Module_GateProxy_leave__E)
                  0000ea18    0000003c     sysbios.aem4f : BIOS.obj (.text:ti_sysbios_knl_Swi_restore__E)
                  0000ea54    0000003a     driverlib.lib : emac.obj (.text:EMACIntEnable)
                  0000ea8e    00000002     --HOLE-- [fill = 0]
                  0000ea90    00000038                   : emac.obj (.text:EMACConfigGet)
                  0000eac8    00000038     stk.aem4f : ipfrag.oem4f (.text:IPReasmTimeout)
                  0000eb00    00000038               : node.oem4f (.text:NodeGetRt)
                  0000eb38    00000038     driverlib.lib : sysctl.obj (.text:SysCtlPeripheralReady)
                  0000eb70    00000038     stk.aem4f : tcpprot.oem4f (.text:TcpClose)
                  0000eba8    00000038               : timer.oem4f (.text:TimerHSTick)
                  0000ebe0    00000038     rtsv7M4_T_le_v4SPD16_eabi.lib : trgmsg.c.obj (.text:__TI_writemsg)
                  0000ec18    00000038     nettool_ipv4.aem4f : dhcpbild.oem4f (.text:dhcpBuildDiscover)
                  0000ec50    00000038                        : dhcptags.oem4f (.text:dhcpOptionsClear)
                  0000ec88    00000038     stk.aem4f : file.oem4f (.text:fdint_waitevent)
                  0000ecc0    00000038     sysbios.aem4f : BIOS.obj (.text:ti_sysbios_family_arm_m3_Hwi_excNoIsr__I)
                  0000ecf8    00000038     tcpEcho_pem4f.oem4f (.text:ti_sysbios_knl_Clock_create)
                  0000ed30    00000038     sysbios.aem4f : BIOS.obj (.text:ti_sysbios_knl_Task_processVitalTaskFlag__I)
                  0000ed68    00000038     ti.targets.arm.rtsarm.aem4f : SysMin.oem4f (.text:xdc_runtime_SysMin_putch__E)
                  0000eda0    00000038                                 : System.oem4f (.text:xdc_runtime_System_atexit__E)
                  0000edd8    00000036     stk.aem4f : ip.oem4f (.text:IPChecksum)
                  0000ee0e    00000002     --HOLE-- [fill = 0]
                  0000ee10    00000034     nettool_ipv4.aem4f : config.oem4f (.text:CfgSetService)
                  0000ee44    00000034     driverlib.lib : emac.obj (.text:EMACConfigSet)
                  0000ee78    00000034                   : emac.obj (.text:EMACIntClear)
                  0000eeac    00000034     drivers_tivaware.aem4f : EMACSnow.oem4f (.text:EMACSnow_emacPoll)
                  0000eee0    00000034                            : EMACSnow.oem4f (.text:EMACSnow_isLinkUp)
                  0000ef14    00000034                            : EMAC.oem4f (.text:EMAC_init)
                  0000ef48    00000034     stk.aem4f : exec.oem4f (.text:ExecClose)
                  0000ef7c    00000034               : nimu.oem4f (.text:NIMUFindByName)
                  0000efb0    00000034               : nimu.oem4f (.text:NIMUInit)
                  0000efe4    00000034               : rawethsock.oem4f (.text:RawEthSockNotify)
                  0000f018    00000034               : sockprot.oem4f (.text:SockPrCtlError)
                  0000f04c    00000034     driverlib.lib : sysctl.obj (.text:SysCtlPeripheralEnable)
                  0000f080    00000034     rtsv7M4_T_le_v4SPD16_eabi.lib : trgmsg.c.obj (.text:__TI_readmsg)
                  0000f0b4    00000034     os.aem4f : mem.oem4f (.text:mmUnInitPage)
                  0000f0e8    00000034     sysbios.aem4f : BIOS.obj (.text:ti_sysbios_family_arm_m3_Hwi_Instance_finalize__E)
                  0000f11c    00000004     ti.targets.arm.rtsarm.aem4f : System.oem4f (.text:xdc_runtime_System_aprintf_va__F)
                  0000f120    00000034     sysbios.aem4f : BIOS.obj (.text:ti_sysbios_family_arm_m3_Hwi_excNmi__I)
                  0000f154    00000004     ti.targets.arm.rtsarm.aem4f : System.oem4f (.text:xdc_runtime_System_printf_va__F)
                  0000f158    00000034     sysbios.aem4f : BIOS.obj (.text:ti_sysbios_hal_Hwi_checkStack)
                  0000f18c    00000034     tcpEcho_pem4f.oem4f (.text:ti_sysbios_knl_Semaphore_create)
                  0000f1c0    00000034     ti.targets.arm.rtsarm.aem4f : Core-label.oem4f (.text:xdc_runtime_Core_assignLabel__I)
                  0000f1f4    00000033                                 : Text.oem4f (.text:xdc_runtime_Text_printVisFxn__I)
                  0000f227    00000001     --HOLE-- [fill = 0]
                  0000f228    00000032     nettool_ipv4.aem4f : config.oem4f (.text:CfgGetImmediate)
                  0000f25a    00000032     stk.aem4f : route.oem4f (.text:RtDeRef)
                  0000f28c    00000032               : route.oem4f (.text:RtSetFailure)
                  0000f2be    00000032               : sb.oem4f (.text:SBFlush)
                  0000f2f0    00000032               : sb.oem4f (.text:SBSetMax)
                  0000f322    00000032               : sock.oem4f (.text:SockIntAbort)
                  0000f354    00000032     nettool_ipv4.aem4f : config.oem4f (.text:_CfgAcquire)
                  0000f386    00000032                        : dhcpsm.oem4f (.text:dhcpIPRemove)
                  0000f3b8    00000032     sysbios.aem4f : BIOS.obj (.text:ti_sysbios_hal_Hwi_initStack)
                  0000f3ea    00000006     driverlib.lib : emac.obj (.text:EMACRxDMADescriptorListSet)
                  0000f3f0    00000032     sysbios.aem4f : BIOS.obj (.text:ti_sysbios_knl_Semaphore_pendTimeout__I)
                  0000f422    00000030     driverlib.lib : emac.obj (.text:EMACAddrSet)
                  0000f452    00000002     --HOLE-- [fill = 0]
                  0000f454    00000030     drivers_tivaware.aem4f : EMACSnow.oem4f (.text:EMACSnow_handlePackets)
                  0000f484    00000030     netctrl_min_ipv4.aem4f : netsrv.oem4f (.text:NS_PreBoot)
                  0000f4b4    00000030     stk.aem4f : sock.oem4f (.text:SockBind)
                  0000f4e4    00000030               : sock.oem4f (.text:SockGetName)
                  0000f514    00000030     nettool_ipv4.aem4f : dhcpsock.oem4f (.text:dhcpPacketSend)
                  0000f544    00000030     stk.aem4f : listlib.oem4f (.text:list_remove_node)
                  0000f574    00000030     tcpEcho_pem4f.oem4f (.text:ti_sysbios_BIOS_atExitFunc__I)
                  0000f5a4    00000004     --HOLE-- [fill = 0]
                  0000f5a8    00000030     sysbios.aem4f : BIOS.obj (.text:ti_sysbios_family_arm_lm4_Timer_stop__E)
                  0000f5d8    00000030                   : BIOS.obj (.text:ti_sysbios_family_arm_m3_TaskSupport_start__E)
                  0000f608    00000030     tcpEcho_pem4f.oem4f (.text:ti_sysbios_gates_GateHwi_Object__create__S)
                  0000f638    00000030     tcpEcho_pem4f.oem4f (.text:ti_sysbios_gates_GateMutex_Object__create__S)
                  0000f668    00000030     sysbios.aem4f : BIOS.obj (.text:ti_sysbios_gates_GateMutex_enter__E)
                  0000f698    00000030     tcpEcho_pem4f.oem4f (.text:ti_sysbios_heaps_HeapMem_Object__create__S)
                  0000f6c8    00000030     tcpEcho_pem4f.oem4f (.text:ti_sysbios_knl_Semaphore_construct)
                  0000f6f8    00000030     ti.targets.arm.rtsarm.aem4f : SysMin.oem4f (.text:xdc_runtime_SysMin_abort__E)
                  0000f728    00000030                                 : System.oem4f (.text:xdc_runtime_System_processAtExit__E)
                  0000f758    0000002e     stk.aem4f : sb.oem4f (.text:SBFree)
                  0000f786    0000002c     driverlib.lib : emac.obj (.text:EMACIntStatus)
                  0000f7b2    0000002c     stk.aem4f : file.oem4f (.text:FdSignalEvent)
                  0000f7de    00000002     --HOLE-- [fill = 0]
                  0000f7e0    0000002c               : igmp.oem4f (.text:IGMPTestGroup)
                  0000f80c    0000002c     os.aem4f : task.oem4f (.text:NDK_hookCreate)
                  0000f838    0000002c     stk.aem4f : nimu.oem4f (.text:NIMUAllocateIndex)
                  0000f864    0000002c               : nimu.oem4f (.text:NIMUPacketServiceCheck)
                  0000f890    0000002c               : pipe.oem4f (.text:PipeClose)
                  0000f8bc    0000002c               : sockpcb.oem4f (.text:SockPcbAttach)
                  0000f8e8    0000002c               : lli.oem4f (.text:_LLIExpListRemove)
                  0000f914    0000002c               : lli.oem4f (.text:_LLITimeoutFlush)
                  0000f940    0000002c               : rtable.oem4f (.text:_RtExpListRemove)
                  0000f96c    0000002c     tcpEcho_pem4f.oem4f (.text:ti_sysbios_knl_Clock_doTick__I)
                  0000f998    0000002c     tcpEcho_pem4f.oem4f (.text:ti_sysbios_knl_Queue_construct)
                  0000f9c4    00000004     --HOLE-- [fill = 0]
                  0000f9c8    0000002c     sysbios.aem4f : BIOS.obj (.text:ti_sysbios_knl_Task_restore__E)
                  0000f9f4    0000002c     ti.targets.arm.rtsarm.aem4f : Text.oem4f (.text:xdc_runtime_Text_cordText__E)
                  0000fa20    0000002a     driverlib.lib : gpio.obj (.text:GPIODirModeSet)
                  0000fa4a    0000002a     stk.aem4f : pbm.oem4f (.text:PBMQ_deq)
                  0000fa74    0000002a     netctrl_min_ipv4.aem4f : netsrv.oem4f (.text:ServiceCallback)
                  0000fa9e    0000002a     nettool_ipv4.aem4f : config.oem4f (.text:_CfgRelease)
                  0000fac8    0000002a     ti.targets.arm.rtsarm.aem4f : System.oem4f (.text:xdc_runtime_System_putchar__I)
                  0000faf2    00000002     --HOLE-- [fill = 0]
                  0000faf4    00000028     stk.aem4f : bind.oem4f (.text:BindFindByNet)
                  0000fb1c    00000028               : lli.oem4f (.text:LLIFree)
                  0000fb44    00000028     netctrl_min_ipv4.aem4f : netctrl.oem4f (.text:NC_SystemClose)
                  0000fb6c    00000028     stk.aem4f : nimu.oem4f (.text:NIMUCreatePacket)
                  0000fb94    00000028               : nimu.oem4f (.text:NIMUPacketService)
                  0000fbbc    00000028               : tcpin.oem4f (.text:TcpEnterTimeWait)
                  0000fbe4    00000028               : timer.oem4f (.text:TimerListRemove)
                  0000fc0c    00000028               : vlan.oem4f (.text:VLANFindSourceInterface)
                  0000fc34    00000028               : vlan.oem4f (.text:VLANInit)
                  0000fc5c    00000028     nettool_ipv4.aem4f : dhcpsock.oem4f (.text:dhcpPacketReceive)
                  0000fc84    00000028     drivers_tivaware.aem4f : EMACSnow.oem4f (.text:signalLinkChange)
                  0000fcac    00000004     --HOLE-- [fill = 0]
                  0000fcb0    00000028     sysbios.aem4f : BIOS.obj (.text:ti_sysbios_knl_Clock_addI__E)
                  0000fcd8    00000028                   : BIOS.obj (.text:ti_sysbios_knl_Swi_Module_startup__E)
                  0000fd00    00000026     nettool_ipv4.aem4f : config.oem4f (.text:CfgEntryInfo)
                  0000fd26    00000026     driverlib.lib : emac.obj (.text:EMACPHYRead)
                  0000fd4c    00000026                   : emac.obj (.text:EMACPHYWrite)
                  0000fd72    00000026     stk.aem4f : rawethsock.oem4f (.text:RawEthSockClose)
                  0000fd98    00000026     tcpEcho_pem4f.oem4f (.text:ti_ndk_config_udp_init)
                  0000fdbe    00000026     sysbios.aem4f : m3_Hwi_asm.obj (.text:ti_sysbios_family_arm_m3_Hwi_pendSV__I)
                  0000fde4    00000026     ti.targets.arm.rtsarm.aem4f : System.oem4f (.text:xdc_runtime_System_avprintf__E)
                  0000fe0a    00000002     --HOLE-- [fill = 0]
                  0000fe0c    00000024     stk.aem4f : bind.oem4f (.text:BindFindByHost)
                  0000fe30    00000024               : bind.oem4f (.text:BindGetIFByDBCast)
                  0000fe54    00000024     drivers_tivaware.aem4f : EMACSnow.oem4f (.text:EMACSnow_pkt_service)
                  0000fe78    00000024                            : EMACSnow.oem4f (.text:EMACSnow_primeRx)
                  0000fe9c    00000024     stk.aem4f : exec.oem4f (.text:ExecTimer)
                  0000fec0    00000024               : nimu.oem4f (.text:NIMUFindByIndex)
                  0000fee4    00000024               : rtc.oem4f (.text:RTCAddHook)
                  0000ff08    00000024               : rawethsock_pcb.oem4f (.text:RawEthSockPcbFind)
                  0000ff2c    00000024               : route.oem4f (.text:RtFree)
                  0000ff50    00000024               : route.oem4f (.text:RtSetTimeout)
                  0000ff74    00000024               : sockpcb.oem4f (.text:SockPcbCleanup)
                  0000ff98    00000024               : tcpprot.oem4f (.text:TcpPrListen)
                  0000ffbc    00000024               : tcptime.oem4f (.text:TcpTimeoutWait2)
                  0000ffe0    00000024     nettool_ipv4.aem4f : config.oem4f (.text:_CfgEntryProcess)
                  00010004    00000024     tcpEcho_pem4f.oem4f (.text:ti_sysbios_BIOS_errorRaiseHook__I)
                  00010028    00000024     tcpEcho_pem4f.oem4f (.text:ti_sysbios_BIOS_registerRTSLock__I)
                  0001004c    00000024     tcpEcho_pem4f.oem4f (.text:ti_sysbios_BIOS_removeRTSLock__I)
                  00010070    00000024     tcpEcho_pem4f.oem4f (.text:ti_sysbios_BIOS_startFunc__I)
                  00010094    00000024     tcpEcho_pem4f.oem4f (.text:ti_sysbios_gates_GateMutex_Object__delete__S)
                  000100b8    00000024     sysbios.aem4f : BIOS.obj (.text:ti_sysbios_knl_Clock_Module_startup__E)
                  000100dc    00000004     --HOLE-- [fill = 0]
                  000100e0    00000024                   : BIOS.obj (.text:ti_sysbios_knl_Semaphore_Instance_init__E)
                  00010104    00000024     tcpEcho_pem4f.oem4f (.text:ti_sysbios_knl_Semaphore_Object__delete__S)
                  00010128    00000024     sysbios.aem4f : BIOS.obj (.text:ti_sysbios_knl_Task_restoreHwi__E)
                  0001014c    00000024     ti.targets.arm.rtsarm.aem4f : System.oem4f (.text:xdc_runtime_System_vprintf__E)
                  00010170    00000022     nettool_ipv4.aem4f : config.oem4f (.text:CfgEntryRef)
                  00010192    00000022     stk.aem4f : vlan.oem4f (.text:VLANFindNode)
                  000101b4    00000022     tcpEcho.obj (.text:setsockopt)
                  000101d6    00000002     --HOLE-- [fill = 0]
                  000101d8    00000022     sysbios.aem4f : BIOS.obj (.text:ti_sysbios_family_arm_lm4_Timer_write__I)
                  000101fa    00000022     tcpEcho_pem4f.oem4f (.text:xdc_runtime_SysMin_output__I)
                  0001021c    00000020     netctrl_min_ipv4.aem4f : netctrl.oem4f (.text:NC_BootComplete)
                  0001023c    00000020     stk.aem4f : nimu.oem4f (.text:NIMUGetNumOfObject)
                  0001025c    00000020               : rtc.oem4f (.text:RTCRemoveHook)
                  0001027c    00000020               : tcp.oem4f (.text:TcpTimeoutRemove)
                  0001029c    00000020     Boot.aem4f : Boot_sysctl.oem4f (.text:_SysCtlMemTimingGet)
                  000102bc    00000020     tcpEcho_pem4f.oem4f (.text:ti_sysbios_BIOS_rtsLock__I)
                  000102dc    00000020     tcpEcho_pem4f.oem4f (.text:ti_sysbios_family_arm_m3_Hwi_Object__delete__S)
                  000102fc    00000020     sysbios.aem4f : m3_Hwi_asm.obj (.text:ti_sysbios_family_arm_m3_Hwi_excHandlerAsm__I)
                  0001031c    00000004     --HOLE-- [fill = 0]
                  00010320    00000020                   : BIOS.obj (.text:ti_sysbios_family_arm_m3_Hwi_excHandler__I)
                  00010340    00000020     tcpEcho_pem4f.oem4f (.text:ti_sysbios_gates_GateHwi_Object__delete__S)
                  00010360    00000020     tcpEcho_pem4f.oem4f (.text:ti_sysbios_heaps_HeapMem_Object__delete__S)
                  00010380    00000020     sysbios.aem4f : BIOS.obj (.text:ti_sysbios_knl_Idle_run__E)
                  000103a0    00000020     tcpEcho_pem4f.oem4f (.text:ti_sysbios_knl_Semaphore_Object__destruct__S)
                  000103c0    00000020     tcpEcho_pem4f.oem4f (.text:ti_sysbios_knl_Swi_Object__delete__S)
                  000103e0    00000020     tcpEcho_pem4f.oem4f (.text:ti_sysbios_knl_Task_Object__delete__S)
                  00010400    00000020     ti.targets.arm.rtsarm.aem4f : Registry.oem4f (.text:xdc_runtime_Registry_findById__E)
                  00010420    00000020                                 : SysMin.oem4f (.text:xdc_runtime_SysMin_Module_startup__E)
                  00010440    0000001e     stk.aem4f : listlib.oem4f (.text:list_remove)
                  0001045e    0000001e     tcpEcho.obj (.text:recv)
                  0001047c    0000001e     tcpEcho.obj (.text:send)
                  0001049a    0000001e     sysbios.aem4f : m3_Hwi_asm_switch.obj (.text:ti_sysbios_family_xxx_Hwi_switchAndRunFunc)
                  000104b8    0000001c     stk.aem4f : bind.oem4f (.text:BindFindByIF)
                  000104d4    0000001c               : exec.oem4f (.text:ExecBroadcast)
                  000104f0    0000001c     os.aem4f : ossys.oem4f (.text:NDK_sprintf)
                  0001050c    0000001c     stk.aem4f : nimu.oem4f (.text:NIMUAddHeader)
                  00010528    0000001c               : sockprot.oem4f (.text:SockPrDetach)
                  00010544    0000001c     os.aem4f : task.oem4f (.text:TaskDestroy)
                  00010560    0000001c     drivers_tivaware.aem4f : GPIOTiva.oem4f (.text:getGpioIntIndex)
                  0001057c    0000001c     tcpEcho_pem4f.oem4f (.text:ti_ndk_config_global_taskCreateHook)
                  00010598    0000001c     sysbios.aem4f : BIOS.obj (.text:ti_sysbios_gates_GateMutex_Instance_init__E)
                  000105b4    0000001c     tcpEcho_pem4f.oem4f (.text:ti_sysbios_knl_Queue_Object__destruct__S)
                  000105d0    0000001c     sysbios.aem4f : BIOS.obj (.text:ti_sysbios_knl_Queue_put__E)
                  000105ec    00000004     --HOLE-- [fill = 0]
                  000105f0    0000001c                   : BIOS.obj (.text:ti_sysbios_knl_Task_enter__I)
                  0001060c    0000001c     ti.targets.arm.rtsarm.aem4f : Error.oem4f (.text:xdc_runtime_Error_raiseX__E)
                  00010628    0000001c                                 : Memory.oem4f (.text:xdc_runtime_Memory_valloc__E)
                  00010644    0000001c                                 : SysMin.oem4f (.text:xdc_runtime_SysMin_exit__E)
                  00010660    0000001c                                 : System.oem4f (.text:xdc_runtime_System_abort__E)
                  0001067c    0000001a     stk.aem4f : bind.oem4f (.text:BindGetIP)
                  00010696    0000001a               : sockint.oem4f (.text:SockSetOOBMark)
                  000106b0    0000001a               : file.oem4f (.text:fdint_getfdt)
                  000106ca    0000001a     tcpEcho_pem4f.oem4f (.text:ti_sysbios_family_arm_m3_Hwi_Handle__label__S)
                  000106e4    0000001a     tcpEcho_pem4f.oem4f (.text:ti_sysbios_gates_GateHwi_Handle__label__S)
                  000106fe    0000001a     tcpEcho_pem4f.oem4f (.text:ti_sysbios_gates_GateMutex_Handle__label__S)
                  00010718    0000001a     tcpEcho_pem4f.oem4f (.text:ti_sysbios_heaps_HeapMem_Handle__label__S)
                  00010732    0000001a     tcpEcho_pem4f.oem4f (.text:ti_sysbios_knl_Swi_Handle__label__S)
                  0001074c    0000001a     tcpEcho_pem4f.oem4f (.text:ti_sysbios_knl_Task_Handle__label__S)
                  00010766    00000002     --HOLE-- [fill = 0]
                  00010768    0000001a     sysbios.aem4f : BIOS.obj (.text:ti_sysbios_knl_Task_sleepTimeout__I)
                  00010782    0000001a     tcpEcho_pem4f.oem4f (.text:xdc_runtime_System_aprintf__E)
                  0001079c    0000001a     tcpEcho_pem4f.oem4f (.text:xdc_runtime_System_printf__E)
                  000107b6    00000002     --HOLE-- [fill = 0]
                  000107b8    00000018     drivers_tivaware.aem4f : EMACSnow.oem4f (.text:EMACSnow_emacSend)
                  000107d0    00000018     stk.aem4f : ip.oem4f (.text:IPRtChange)
                  000107e8    00000018               : rawethsock_pcb.oem4f (.text:RawEthSockPcbCleanup)
                  00010800    00000018     nettool_ipv4.aem4f : ipaddr.oem4f (.text:RouteHook)
                  00010818    00000018     stk.aem4f : tcpin.oem4f (.text:SEQ_GEQ)
                  00010830    00000018               : tcpout.oem4f (.text:SEQ_GEQ)
                  00010848    00000018               : tcpin.oem4f (.text:SEQ_GT)
                  00010860    00000018               : tcpout.oem4f (.text:SEQ_GT)
                  00010878    00000018               : tcpin.oem4f (.text:SEQ_LEQ)
                  00010890    00000018               : tcpout.oem4f (.text:SEQ_LEQ)
                  000108a8    00000018               : tcpin.oem4f (.text:SEQ_LT)
                  000108c0    00000018               : tcpout.oem4f (.text:SEQ_LT)
                  000108d8    00000018               : tcp.oem4f (.text:TcpTimeoutAdd)
                  000108f0    00000018     rtsv7M4_T_le_v4SPD16_eabi.lib : args_main.c.obj (.text:_args_main)
                  00010908    00000018     nettool_ipv4.aem4f : dhcpsock.oem4f (.text:dhcpSocketClose)
                  00010920    00000018     stk.aem4f : listlib.oem4f (.text:list_add)
                  00010938    00000018     rtsv7M4_T_le_v4SPD16_eabi.lib : strcmp.c.obj (.text:strcmp)
                  00010950    00000018     tcpEcho_pem4f.oem4f (.text:ti_sysbios_BIOS_rtsUnlock__I)
                  00010968    00000018     tcpEcho_pem4f.oem4f (.text:ti_sysbios_family_arm_lm4_Timer_Module__startupDone__F)
                  00010980    00000018     tcpEcho_pem4f.oem4f (.text:ti_sysbios_family_arm_m3_Hwi_Module__startupDone__F)
                  00010998    00000018     sysbios.aem4f : m3_TaskSupport_asm.obj (.text:ti_sysbios_family_arm_m3_TaskSupport_swap__E)
                  000109b0    00000018                   : BIOS.obj (.text:ti_sysbios_gates_GateMutex_leave__E)
                  000109c8    00000018     ti.targets.arm.rtsarm.aem4f : Error.oem4f (.text:xdc_runtime_Error_check__E)
                  000109e0    00000018                                 : System.oem4f (.text:xdc_runtime_System_exit__E)
                  000109f8    00000018                                 : Text.oem4f (.text:xdc_runtime_Text_ropeText__E)
                  00010a10    00000016     driverlib.lib : emac.obj (.text:EMACReset)
                  00010a26    00000016                   : emac.obj (.text:EMACRxEnable)
                  00010a3c    00000016                   : emac.obj (.text:EMACTxEnable)
                  00010a52    00000016     stk.aem4f : file.oem4f (.text:fdint_freefdt)
                  00010a68    00000016     tcpEcho_pem4f.oem4f (.text:ti_sysbios_BIOS_exitFunc__I)
                  00010a7e    00000016     tcpEcho.obj (.text:ti_sysbios_knl_Task_Params_init)
                  00010a94    00000016     tcpEchoHooks.obj (.text:ti_sysbios_knl_Task_Params_init)
                  00010aaa    00000016     ti.targets.arm.rtsarm.aem4f : System.oem4f (.text:xdc_runtime_System_vsprintf__E)
                  00010ac0    00000014     stk.aem4f : bind.oem4f (.text:BindIPHost2IF)
                  00010ad4    00000014     driverlib.lib : flash.obj (.text:FlashUserGet)
                  00010ae8    00000014     netctrl_min_ipv4.aem4f : netctrl.oem4f (.text:NC_NetStop)
                  00010afc    00000014     os.aem4f : task.oem4f (.text:NDK_hookExit)
                  00010b10    00000014     stk.aem4f : nimu.oem4f (.text:NIMUSendPacket)
                  00010b24    00000014     nettool_ipv4.aem4f : ipaddr.oem4f (.text:NtRemoveNetwork)
                  00010b38    00000014     stk.aem4f : rawethsock_pcb.oem4f (.text:RawEthSockPcbInit)
                  00010b4c    00000014               : timer.oem4f (.text:TimerFree)
                  00010b60    00000014     tcpEcho.obj (.text:accept)
                  00010b74    00000014     tcpEcho.obj (.text:bind)
                  00010b88    00000014     tcpEcho.obj (.text:socket)
                  00010b9c    00000014     rtsv7M4_T_le_v4SPD16_eabi.lib : strcpy.c.obj (.text:strcpy)
                  00010bb0    00000014                                   : strlen.c.obj (.text:strlen)
                  00010bc4    00000014     tcpEcho_pem4f.oem4f (.text:ti_ndk_config_global_taskExitHook)
                  00010bd8    00000014     tcpEcho_pem4f.oem4f (.text:ti_sysbios_family_arm_m3_Hwi_Object__get__S)
                  00010bec    00000004     --HOLE-- [fill = 0]
                  00010bf0    00000014     sysbios.aem4f : BIOS.obj (.text:ti_sysbios_family_arm_m3_Hwi_switchFromBootStack__E)
                  00010c04    00000014     tcpEcho_pem4f.oem4f (.text:ti_sysbios_heaps_HeapMem_Object__get__S)
                  00010c18    00000014     tcpEcho_pem4f.oem4f (.text:ti_sysbios_knl_Swi_Object__get__S)
                  00010c2c    00000014     tcpEcho_pem4f.oem4f (.text:ti_sysbios_knl_Task_Object__first__S)
                  00010c40    00000014     tcpEcho_pem4f.oem4f (.text:ti_sysbios_knl_Task_Object__next__S)
                  00010c54    00000012     driverlib.lib : gpio.obj (.text:GPIOPinTypeEthernetLED)
                  00010c66    00000012     stk.aem4f : sockprot.oem4f (.text:SockPrAttach)
                  00010c78    00000012               : sockint.oem4f (.text:SockSetOOBData)
                  00010c8a    00000012     nettool_ipv4.aem4f : inetaddr.oem4f (.text:inet_addr)
                  00010c9c    00000004     --HOLE-- [fill = 0]
                  00010ca0    00000012     sysbios.aem4f : BIOS.obj (.text:ti_sysbios_hal_Hwi_Module_startup__E)
                  00010cb2    00000006     driverlib.lib : emac.obj (.text:EMACTxDMADescriptorListSet)
                  00010cb8    00000012     sysbios.aem4f : BIOS.obj (.text:ti_sysbios_knl_Semaphore_reset__E)
                  00010cca    00000012     tcpEcho_pem4f.oem4f (.text:xdc_runtime_Startup_exec__I)
                  00010cdc    00000010     tcpEcho_pem4f.oem4f (.text:.bootCodeSection:ti_catalog_arm_cortexm4_tiva_ce_Boot_init__I)
                  00010cec    00000010     stk.aem4f : bind.oem4f (.text:BindIF2IPHost)
                  00010cfc    00000010               : bind.oem4f (.text:BindIFNet2IPHost)
                  00010d0c    00000010     driverlib.lib : emac.obj (.text:EMACFrameFilterSet)
                  00010d1c    00000010     stk.aem4f : exec.oem4f (.text:ExecHRef)
                  00010d2c    00000010     netctrl_min_ipv4.aem4f : netctrl.oem4f (.text:NC_IPUpdate)
                  00010d3c    00000010     stk.aem4f : nimu.oem4f (.text:NIMUGetRsvdSizeInfo)
                  00010d4c    00000010     tcpEcho.obj (.text:listen)
                  00010d5c    00000004     --HOLE-- [fill = 0]
                  00010d60    00000010     sysbios.aem4f : BIOS.obj (.text:ti_sysbios_BIOS_getCpuFreq__E)
                  00010d70    00000010                   : BIOS.obj (.text:ti_sysbios_BIOS_setThreadType__E)
                  00010d80    00000010                   : BIOS.obj (.text:ti_sysbios_BIOS_start__E)
                  00010d90    00000010                   : m3_TaskSupport_asm.obj (.text:ti_sysbios_family_arm_m3_TaskSupport_glue)
                  00010da0    00000010                   : BIOS.obj (.text:ti_sysbios_gates_GateMutex_Instance_finalize__E)
                  00010db0    00000010                   : BIOS.obj (.text:ti_sysbios_knl_Semaphore_Instance_finalize__E)
                  00010dc0    00000010                   : BIOS.obj (.text:ti_sysbios_knl_Swi_disable__E)
                  00010dd0    00000010     tcpEcho_pem4f.oem4f (.text:ti_sysbios_knl_Task_Object__get__S)
                  00010de0    00000010     sysbios.aem4f : BIOS.obj (.text:ti_sysbios_knl_Task_disable__E)
                  00010df0    00000010     ti.targets.arm.rtsarm.aem4f : Gate.oem4f (.text:xdc_runtime_Gate_leaveSystem__E)
                  00010e00    00000010                                 : Memory.oem4f (.text:xdc_runtime_Memory_free__E)
                  00010e10    00000010                                 : SysMin.oem4f (.text:xdc_runtime_SysMin_ready__E)
                  00010e20    00000010                                 : System.oem4f (.text:xdc_runtime_System_vsnprintf__E)
                  00010e30    00000010     tcpEcho_pem4f.oem4f (.text:xdc_runtime_Text_visitRope__I)
                  00010e40    0000000e     drivers_tivaware.aem4f : EMACSnow.oem4f (.text:EMACSnow_emacioctl)
                  00010e4e    0000000e     stk.aem4f : exec.oem4f (.text:ExecLowResource)
                  00010e5c    0000000e     driverlib.lib : gpio.obj (.text:GPIOIntStatus)
                  00010e6a    0000000e     rtsv7M4_T_le_v4SPD16_eabi.lib : copy_decompress_none.c.obj (.text:decompress:none:__TI_decompress_none)
                  00010e78    0000000e     sysbios.aem4f : BIOS.obj (.text:ti_sysbios_knl_Idle_loop__E)
                  00010e86    00000002     --HOLE-- [fill = 0]
                  00010e88    0000000e                   : BIOS.obj (.text:ti_sysbios_knl_Queue_empty__E)
                  00010e96    00000002     --HOLE-- [fill = 0]
                  00010e98    0000000c     stk.aem4f : bind.oem4f (.text:BindGetFirst)
                  00010ea4    0000000c     nettool_ipv4.aem4f : config.oem4f (.text:CfgSetDefault)
                  00010eb0    0000000c     drivers_tivaware.aem4f : EMACSnow.oem4f (.text:EMACSnow_init)
                  00010ebc    0000000c     os.aem4f : task.oem4f (.text:NDK_hookInit)
                  00010ec8    0000000c     stk.aem4f : nimu.oem4f (.text:NIMUSetRsvdSizeInfo)
                  00010ed4    0000000c     os.aem4f : task.oem4f (.text:NotifyLowResource)
                  00010ee0    0000000c     stk.aem4f : pbm.oem4f (.text:PBM_close)
                  00010eec    0000000c     os.aem4f : semaphore.oem4f (.text:SemDelete)
                  00010ef8    0000000c     hal_timer_bios.aem4f : lltimer.oem4f (.text:_llTimerShutdown)
                  00010f04    0000000c     rtsv7M4_T_le_v4SPD16_eabi.lib : _lock.c.obj (.text:_register_lock)
                  00010f10    0000000c                                   : _lock.c.obj (.text:_register_unlock)
                  00010f1c    0000000c     tcpEcho.obj (.text:close)
                  00010f28    0000000c     rtsv7M4_T_le_v4SPD16_eabi.lib : copy_zero_init.c.obj (.text:decompress:ZI:__TI_zero_init)
                  00010f34    0000000c     hal_timer_bios.aem4f : lltimer.oem4f (.text:llTimerGetStartTime)
                  00010f40    0000000c     sysbios.aem4f : BIOS.obj (.text:ti_sysbios_BIOS_getThreadType__E)
                  00010f4c    00000004     --HOLE-- [fill = 0]
                  00010f50    0000000c                   : BIOS.obj (.text:ti_sysbios_family_arm_lm4_Timer_getMaxTicks__E)
                  00010f5c    0000000c     tcpEcho_pem4f.oem4f (.text:ti_sysbios_family_arm_m3_Hwi_Params__init__S)
                  00010f68    0000000c     sysbios.aem4f : BIOS.obj (.text:ti_sysbios_family_arm_m3_Hwi_disableFxn__E)
                  00010f74    00000004     --HOLE-- [fill = 0]
                  00010f78    0000000c                   : BIOS.obj (.text:ti_sysbios_family_arm_m3_TaskSupport_checkStack__E)
                  00010f84    00000004     --HOLE-- [fill = 0]
                  00010f88    0000000c                   : BIOS.obj (.text:ti_sysbios_family_arm_m3_TaskSupport_getStackAlignment__E)
                  00010f94    00000004     --HOLE-- [fill = 0]
                  00010f98    0000000c                   : BIOS.obj (.text:ti_sysbios_gates_GateHwi_enter__E)
                  00010fa4    0000000c     tcpEcho_pem4f.oem4f (.text:ti_sysbios_knl_Clock_Params__init__S)
                  00010fb0    0000000c     sysbios.aem4f : BIOS.obj (.text:ti_sysbios_knl_Clock_getTicks__E)
                  00010fbc    0000000c     tcpEcho_pem4f.oem4f (.text:ti_sysbios_knl_Queue_Object__get__S)
                  00010fc8    0000000c     tcpEcho_pem4f.oem4f (.text:ti_sysbios_knl_Semaphore_Params__init__S)
                  00010fd4    0000000c     tcpEcho_pem4f.oem4f (.text:ti_sysbios_knl_Task_Params__init__S)
                  00010fe0    0000000c     sysbios.aem4f : BIOS.obj (.text:ti_sysbios_knl_Task_getIdleTask__E)
                  00010fec    00000004     --HOLE-- [fill = 0]
                  00010ff0    0000000c                   : BIOS.obj (.text:ti_sysbios_knl_Task_self__E)
                  00010ffc    0000000c     ti.targets.arm.rtsarm.aem4f : Error.oem4f (.text:xdc_runtime_Error_init__E)
                  00011008    0000000c                                 : Gate.oem4f (.text:xdc_runtime_Gate_enterSystem__E)
                  00011014    0000000c                                 : Memory.oem4f (.text:xdc_runtime_Memory_calloc__E)
                  00011020    0000000c                                 : Memory.oem4f (.text:xdc_runtime_Memory_getMaxDefaultTypeAlign__E)
                  0001102c    0000000a     stk.aem4f : file.oem4f (.text:fdint_signalevent)
                  00011036    0000000a               : file.oem4f (.text:fdint_signaltimeout)
                  00011040    0000000a     tcpEcho_pem4f.oem4f (.text:xdc_runtime_IHeap_alloc)
                  0001104a    0000000a     tcpEcho_pem4f.oem4f (.text:xdc_runtime_IHeap_free)
                  00011054    00000008     EK_TM4C1294XL.obj (.text:EK_TM4C1294XL_initGPIO)
                  0001105c    00000008     driverlib.lib : emac.obj (.text:EMACTxDMAPollDemand)
                  00011064    00000008     stk.aem4f : node.oem4f (.text:NodeFree)
                  0001106c    00000008     os.aem4f : task.oem4f (.text:TaskBlock)
                  00011074    00000008     sysbios.aem4f : BIOS.obj (.text:ti_sysbios_family_arm_lm4_Timer_masterDisable__I)
                  0001107c    00000004     --HOLE-- [fill = 0]
                  00011080    00000008                   : BIOS.obj (.text:ti_sysbios_family_arm_m3_Hwi_doSwiRestore__I)
                  00011088    00000008                   : BIOS.obj (.text:ti_sysbios_family_arm_m3_Hwi_startup__E)
                  00011090    00000008                   : BIOS.obj (.text:ti_sysbios_knl_Task_getHookContext__E)
                  00011098    00000008                   : BIOS.obj (.text:ti_sysbios_knl_Task_setHookContext__E)
                  000110a0    00000006     driverlib.lib : gpio.obj (.text:GPIOIntClear)
                  000110a6    00000006                   : gpio.obj (.text:GPIOPinWrite)
                  000110ac    00000006                   : sysctl.obj (.text:SysCtlDelay)
                  000110b2    00000006     stk.aem4f : tcpprot.oem4f (.text:TcpPrRecv)
                  000110b8    00000006     ti.targets.arm.rtsarm.aem4f : xdc_noinit.oem4f (.text:__xdc__init)
                  000110be    00000002     --HOLE-- [fill = 0]
                  000110c0    00000006     sysbios.aem4f : BIOS.obj (.text:ti_sysbios_family_arm_m3_Hwi_doTaskRestore__I)
                  000110c6    00000002     --HOLE-- [fill = 0]
                  000110c8    00000006                   : BIOS.obj (.text:ti_sysbios_family_arm_m3_Hwi_restoreFxn__E)
                  000110ce    00000002     --HOLE-- [fill = 0]
                  000110d0    00000006                   : BIOS.obj (.text:ti_sysbios_gates_GateHwi_leave__E)
                  000110d6    00000002     --HOLE-- [fill = 0]
                  000110d8    00000006                   : BIOS.obj (.text:ti_sysbios_heaps_HeapMem_isBlocking__E)
                  000110de    00000002     --HOLE-- [fill = 0]
                  000110e0    00000006                   : BIOS.obj (.text:ti_sysbios_knl_Queue_Instance_init__E)
                  000110e6    00000002     --HOLE-- [fill = 0]
                  000110e8    00000006                   : BIOS.obj (.text:ti_sysbios_knl_Swi_startup__E)
                  000110ee    00000006     ti.targets.arm.rtsarm.aem4f : System.oem4f (.text:xdc_runtime_System_Module_startup__E)
                  000110f4    00000004     --HOLE-- [fill = 0]
                  000110f8    00000004     sysbios.aem4f : BIOS.obj (.text:ti_sysbios_gates_GateHwi_query__E)
                  000110fc    00000004     --HOLE-- [fill = 0]
                  00011100    00000004                   : BIOS.obj (.text:ti_sysbios_gates_GateMutex_query__E)
                  00011104    00000004     --HOLE-- [fill = 0]
                  00011108    00000004                   : BIOS.obj (.text:ti_sysbios_knl_Task_startup__E)
                  0001110c    00000004     --HOLE-- [fill = 0]
                  00011110    00000002                   : BIOS.obj (.text:ti_sysbios_gates_GateHwi_Instance_init__E)
                  00011112    00000006     --HOLE-- [fill = 0]
                  00011118    00000002                   : BIOS.obj (.text:ti_sysbios_knl_Clock_logTick__E)
                  0001111a    00000006     --HOLE-- [fill = 0]
                  00011120    00000002                   : BIOS.obj (.text:ti_sysbios_knl_Swi_Instance_finalize__E)

.const     0    00011124    000023a8     
                  00011124    0000191d     tcpEcho_pem4f.oem4f (.const:xdc_runtime_Text_charTab__A)
                  00012a41    00000001     tcpEcho_pem4f.oem4f (.const:xdc_runtime_Error_policy__C)
                  00012a42    00000002     tcpEcho_pem4f.oem4f (.const:ti_catalog_arm_cortexm4_tiva_ce_Boot_Module__id__C)
                  00012a44    00000120     Boot.aem4f : Boot_sysctl.oem4f (.const:g_pppui32XTALtoVCO)
                  00012b64    00000100     tcpEcho_pem4f.oem4f (.const:.string)
                  00012c64    000000d4     tcpEcho_pem4f.oem4f (.const:xdc_runtime_Text_nodeTab__A)
                  00012d38    00000090     driverlib.lib : gpio.obj (.const:g_pui32GPIOBaseAddrs)
                  00012dc8    0000006c     Boot.aem4f : Boot_sysctl.oem4f (.const:g_pui32Xtals)
                  00012e34    00000054     drivers_tivaware.aem4f : GPIOTiva.oem4f (.const:.string)
                  00012e88    00000054     stk.aem4f : sockprot.oem4f (.const:Code2Err)
                  00012edc    00000048     drivers_tivaware.aem4f : GPIOTiva.oem4f (.const:gpioBaseAddresses)
                  00012f24    0000003e     stk.aem4f : rtc.oem4f (.const:.string)
                  00012f62    00000002     tcpEcho_pem4f.oem4f (.const:ti_sysbios_family_arm_m3_Hwi_Module__id__C)
                  00012f64    0000003c     tcpEcho_pem4f.oem4f (.const:ti_sysbios_knl_Task_Object__PARAMS__C)
                  00012fa0    00000030     Boot.aem4f : Boot_sysctl.oem4f (.const:g_sXTALtoMEMTIM)
                  00012fd0    00000030     tcpEcho_pem4f.oem4f (.const:ti_sysbios_family_arm_m3_Hwi_Object__PARAMS__C)
                  00013000    00000028     tcpEcho_pem4f.oem4f (.const:ti_sysbios_heaps_HeapMem_Module__FXNS__C)
                  00013028    00000028     tcpEcho_pem4f.oem4f (.const:ti_sysbios_knl_Swi_Object__PARAMS__C)
                  00013050    00000024     tcpEcho_pem4f.oem4f (.const:ti_sysbios_gates_GateHwi_Module__FXNS__C)
                  00013074    00000024     tcpEcho_pem4f.oem4f (.const:ti_sysbios_gates_GateMutex_Module__FXNS__C)
                  00013098    00000024     tcpEcho_pem4f.oem4f (.const:ti_sysbios_heaps_HeapMem_Object__PARAMS__C)
                  000130bc    00000024     tcpEcho_pem4f.oem4f (.const:ti_sysbios_knl_Clock_Object__PARAMS__C)
                  000130e0    00000024     tcpEcho_pem4f.oem4f (.const:ti_sysbios_knl_Semaphore_Object__PARAMS__C)
                  00013104    00000020     tcpEcho_pem4f.oem4f (.const:ti_sysbios_family_arm_m3_Hwi_Object__DESC__C)
                  00013124    00000020     tcpEcho_pem4f.oem4f (.const:ti_sysbios_gates_GateHwi_Object__DESC__C)
                  00013144    00000020     tcpEcho_pem4f.oem4f (.const:ti_sysbios_gates_GateMutex_Object__DESC__C)
                  00013164    00000020     tcpEcho_pem4f.oem4f (.const:ti_sysbios_heaps_HeapMem_Object__DESC__C)
                  00013184    00000020     tcpEcho_pem4f.oem4f (.const:ti_sysbios_knl_Clock_Object__DESC__C)
                  000131a4    00000020     tcpEcho_pem4f.oem4f (.const:ti_sysbios_knl_Queue_Object__DESC__C)
                  000131c4    00000020     tcpEcho_pem4f.oem4f (.const:ti_sysbios_knl_Semaphore_Object__DESC__C)
                  000131e4    00000020     tcpEcho_pem4f.oem4f (.const:ti_sysbios_knl_Swi_Object__DESC__C)
                  00013204    00000020     tcpEcho_pem4f.oem4f (.const:ti_sysbios_knl_Task_Object__DESC__C)
                  00013224    00000020     tcpEcho_pem4f.oem4f (.const:xdc_runtime_Startup_sfxnTab__A)
                  00013244    00000018     EK_TM4C1294XL.obj (.const:EMAC_config)
                  0001325c    00000018     driverlib.lib : emac.obj (.const)
                  00013274    00000018     tcpEcho_pem4f.oem4f (.const)
                  0001328c    00000018     tcpEcho_pem4f.oem4f (.const:ti_sysbios_gates_GateHwi_Object__PARAMS__C)
                  000132a4    00000018     tcpEcho_pem4f.oem4f (.const:ti_sysbios_gates_GateMutex_Object__PARAMS__C)
                  000132bc    00000018     tcpEcho_pem4f.oem4f (.const:ti_sysbios_knl_Queue_Object__PARAMS__C)
                  000132d4    00000018     tcpEcho_pem4f.oem4f (.const:ti_sysbios_knl_Task_hooks__A)
                  000132ec    00000014     EK_TM4C1294XL.obj (.const:GPIOTiva_config)
                  00013300    00000014     tcpEcho_pem4f.oem4f (.const:xdc_runtime_Startup_firstFxns__A)
                  00013314    00000010     EK_TM4C1294XL.obj (.const:emacHWAttrs)
                  00013324    00000010     tcpEcho_pem4f.oem4f (.const:xdc_runtime_Startup_sfxnRts__A)
                  00013334    00000008     Boot.aem4f : Boot_sysctl.oem4f (.const)
                  0001333c    00000008     drivers_tivaware.aem4f : EMACSnow.oem4f (.const)
                  00013344    00000008     tcpEcho_pem4f.oem4f (.const:ti_sysbios_family_arm_m3_Hwi_excHookFuncs__A)
                  0001334c    00000008     tcpEcho_pem4f.oem4f (.const:ti_sysbios_knl_Idle_funcList__A)
                  00013354    00000008     tcpEcho_pem4f.oem4f (.const:ti_sysbios_knl_Idle_funcList__C)
                  0001335c    00000008     tcpEcho_pem4f.oem4f (.const:ti_sysbios_knl_Task_hooks__C)
                  00013364    00000008     tcpEcho_pem4f.oem4f (.const:xdc_runtime_Startup_firstFxns__C)
                  0001336c    00000008     tcpEcho_pem4f.oem4f (.const:xdc_runtime_Startup_lastFxns__C)
                  00013374    00000004     tcpEcho_pem4f.oem4f (.const:ti_catalog_arm_cortexm4_tiva_ce_Boot_A_mustNotUseEnhancedClockMode__C)
                  00013378    00000004     tcpEcho_pem4f.oem4f (.const:ti_catalog_arm_cortexm4_tiva_ce_Boot_Module__diagsEnabled__C)
                  0001337c    00000004     tcpEcho_pem4f.oem4f (.const:ti_catalog_arm_cortexm4_tiva_ce_Boot_Module__diagsIncluded__C)
                  00013380    00000004     tcpEcho_pem4f.oem4f (.const:ti_catalog_arm_cortexm4_tiva_ce_Boot_Module__diagsMask__C)
                  00013384    00000004     tcpEcho_pem4f.oem4f (.const:ti_sysbios_family_arm_lm4_Timer_enableFunc__C)
                  00013388    00000004     tcpEcho_pem4f.oem4f (.const:ti_sysbios_family_arm_lm4_Timer_numTimerDevices__C)
                  0001338c    00000004     tcpEcho_pem4f.oem4f (.const:ti_sysbios_family_arm_lm4_Timer_startupNeeded__C)
                  00013390    00000004     tcpEcho_pem4f.oem4f (.const:ti_sysbios_family_arm_m3_Hwi_E_NMI__C)
                  00013394    00000004     tcpEcho_pem4f.oem4f (.const:ti_sysbios_family_arm_m3_Hwi_E_alreadyDefined__C)
                  00013398    00000004     tcpEcho_pem4f.oem4f (.const:ti_sysbios_family_arm_m3_Hwi_E_busFault__C)
                  0001339c    00000004     tcpEcho_pem4f.oem4f (.const:ti_sysbios_family_arm_m3_Hwi_E_debugMon__C)
                  000133a0    00000004     tcpEcho_pem4f.oem4f (.const:ti_sysbios_family_arm_m3_Hwi_E_hardFault__C)
                  000133a4    00000004     tcpEcho_pem4f.oem4f (.const:ti_sysbios_family_arm_m3_Hwi_E_memFault__C)
                  000133a8    00000004     tcpEcho_pem4f.oem4f (.const:ti_sysbios_family_arm_m3_Hwi_E_noIsr__C)
                  000133ac    00000004     tcpEcho_pem4f.oem4f (.const:ti_sysbios_family_arm_m3_Hwi_E_reserved__C)
                  000133b0    00000004     tcpEcho_pem4f.oem4f (.const:ti_sysbios_family_arm_m3_Hwi_E_svCall__C)
                  000133b4    00000004     tcpEcho_pem4f.oem4f (.const:ti_sysbios_family_arm_m3_Hwi_E_usageFault__C)
                  000133b8    00000004     tcpEcho_pem4f.oem4f (.const:ti_sysbios_family_arm_m3_Hwi_NUM_INTERRUPTS__C)
                  000133bc    00000004     tcpEcho_pem4f.oem4f (.const:ti_sysbios_family_arm_m3_Hwi_Object__count__C)
                  000133c0    00000004     tcpEcho_pem4f.oem4f (.const:ti_sysbios_family_arm_m3_Hwi_ccr__C)
                  000133c4    00000004     tcpEcho_pem4f.oem4f (.const:ti_sysbios_family_arm_m3_Hwi_excHandlerFunc__C)
                  000133c8    00000004     tcpEcho_pem4f.oem4f (.const:ti_sysbios_family_arm_m3_Hwi_excHookFuncs__C)
                  000133cc    00000004     tcpEcho_pem4f.oem4f (.const:ti_sysbios_family_arm_m3_Hwi_nullIsrFunc__C)
                  000133d0    00000004     tcpEcho_pem4f.oem4f (.const:ti_sysbios_family_arm_m3_Hwi_priGroup__C)
                  000133d4    00000004     tcpEcho_pem4f.oem4f (.const:ti_sysbios_family_arm_m3_TaskSupport_stackAlignment__C)
                  000133d8    00000004     tcpEcho_pem4f.oem4f (.const:ti_sysbios_gates_GateMutex_Instance_State_sem__O)
                  000133dc    00000004     tcpEcho_pem4f.oem4f (.const:ti_sysbios_hal_Hwi_E_stackOverflow__C)
                  000133e0    00000004     tcpEcho_pem4f.oem4f (.const:ti_sysbios_heaps_HeapMem_E_memory__C)
                  000133e4    00000004     tcpEcho_pem4f.oem4f (.const:ti_sysbios_heaps_HeapMem_Module__gateObj__C)
                  000133e8    00000004     tcpEcho_pem4f.oem4f (.const:ti_sysbios_heaps_HeapMem_Object__count__C)
                  000133ec    00000004     tcpEcho_pem4f.oem4f (.const:ti_sysbios_heaps_HeapMem_reqAlign__C)
                  000133f0    00000004     tcpEcho_pem4f.oem4f (.const:ti_sysbios_knl_Clock_Module_State_clockQ__O)
                  000133f4    00000004     tcpEcho_pem4f.oem4f (.const:ti_sysbios_knl_Semaphore_Instance_State_pendQ__O)
                  000133f8    00000004     tcpEcho_pem4f.oem4f (.const:ti_sysbios_knl_Swi_Object__count__C)
                  000133fc    00000004     tcpEcho_pem4f.oem4f (.const:ti_sysbios_knl_Task_E_deleteNotAllowed__C)
                  00013400    00000004     tcpEcho_pem4f.oem4f (.const:ti_sysbios_knl_Task_E_spOutOfBounds__C)
                  00013404    00000004     tcpEcho_pem4f.oem4f (.const:ti_sysbios_knl_Task_E_stackOverflow__C)
                  00013408    00000004     tcpEcho_pem4f.oem4f (.const:ti_sysbios_knl_Task_Module_State_inactiveQ__O)
                  0001340c    00000004     tcpEcho_pem4f.oem4f (.const:ti_sysbios_knl_Task_Module_State_terminatedQ__O)
                  00013410    00000004     tcpEcho_pem4f.oem4f (.const:ti_sysbios_knl_Task_Object__count__C)
                  00013414    00000004     tcpEcho_pem4f.oem4f (.const:ti_sysbios_knl_Task_Object__heap__C)
                  00013418    00000004     tcpEcho_pem4f.oem4f (.const:ti_sysbios_knl_Task_allBlockedFunc__C)
                  0001341c    00000004     tcpEcho_pem4f.oem4f (.const:ti_sysbios_knl_Task_defaultStackHeap__C)
                  00013420    00000004     tcpEcho_pem4f.oem4f (.const:ti_sysbios_knl_Task_defaultStackSize__C)
                  00013424    00000004     tcpEcho_pem4f.oem4f (.const:ti_sysbios_knl_Task_numConstructedTasks__C)
                  00013428    00000004     tcpEcho_pem4f.oem4f (.const:xdc_runtime_Assert_E_assertFailed__C)
                  0001342c    00000004     tcpEcho_pem4f.oem4f (.const:xdc_runtime_Core_A_initializedParams__C)
                  00013430    00000004     tcpEcho_pem4f.oem4f (.const:xdc_runtime_Core_Module__diagsEnabled__C)
                  00013434    00000004     tcpEcho_pem4f.oem4f (.const:xdc_runtime_Core_Module__diagsIncluded__C)
                  00013438    00000004     tcpEcho_pem4f.oem4f (.const:xdc_runtime_Core_Module__diagsMask__C)
                  0001343c    00000004     tcpEcho_pem4f.oem4f (.const:xdc_runtime_Error_E_memory__C)
                  00013440    00000004     tcpEcho_pem4f.oem4f (.const:xdc_runtime_Error_Module__diagsEnabled__C)
                  00013444    00000004     tcpEcho_pem4f.oem4f (.const:xdc_runtime_Error_Module__diagsIncluded__C)
                  00013448    00000004     tcpEcho_pem4f.oem4f (.const:xdc_runtime_Error_Module__diagsMask__C)
                  0001344c    00000004     tcpEcho_pem4f.oem4f (.const:xdc_runtime_Error_Module__loggerFxn8__C)
                  00013450    00000004     tcpEcho_pem4f.oem4f (.const:xdc_runtime_Error_Module__loggerObj__C)
                  00013454    00000004     tcpEcho_pem4f.oem4f (.const:xdc_runtime_Error_policyFxn__C)
                  00013458    00000004     tcpEcho_pem4f.oem4f (.const:xdc_runtime_Error_raiseHook__C)
                  0001345c    00000004     tcpEcho_pem4f.oem4f (.const:xdc_runtime_IGateProvider_Interface__BASE__C)
                  00013460    00000004     tcpEcho_pem4f.oem4f (.const:xdc_runtime_IHeap_Interface__BASE__C)
                  00013464    00000004     tcpEcho_pem4f.oem4f (.const:xdc_runtime_IModule_Interface__BASE__C)
                  00013468    00000004     tcpEcho_pem4f.oem4f (.const:xdc_runtime_Log_L_error__C)
                  0001346c    00000004     tcpEcho_pem4f.oem4f (.const:xdc_runtime_Memory_defaultHeapInstance__C)
                  00013470    00000004     tcpEcho_pem4f.oem4f (.const:xdc_runtime_Startup_execImpl__C)
                  00013474    00000004     tcpEcho_pem4f.oem4f (.const:xdc_runtime_Startup_maxPasses__C)
                  00013478    00000004     tcpEcho_pem4f.oem4f (.const:xdc_runtime_Startup_sfxnRts__C)
                  0001347c    00000004     tcpEcho_pem4f.oem4f (.const:xdc_runtime_Startup_sfxnTab__C)
                  00013480    00000004     tcpEcho_pem4f.oem4f (.const:xdc_runtime_SysMin_bufSize__C)
                  00013484    00000004     tcpEcho_pem4f.oem4f (.const:xdc_runtime_SysMin_outputFunc__C)
                  00013488    00000004     tcpEcho_pem4f.oem4f (.const:xdc_runtime_System_Module__gateObj__C)
                  0001348c    00000004     tcpEcho_pem4f.oem4f (.const:xdc_runtime_System_abortFxn__C)
                  00013490    00000004     tcpEcho_pem4f.oem4f (.const:xdc_runtime_System_exitFxn__C)
                  00013494    00000004     tcpEcho_pem4f.oem4f (.const:xdc_runtime_System_extendFxn__C)
                  00013498    00000004     tcpEcho_pem4f.oem4f (.const:xdc_runtime_System_maxAtexitHandlers__C)
                  0001349c    00000004     tcpEcho_pem4f.oem4f (.const:xdc_runtime_Text_charTab__C)
                  000134a0    00000004     tcpEcho_pem4f.oem4f (.const:xdc_runtime_Text_nameEmpty__C)
                  000134a4    00000004     tcpEcho_pem4f.oem4f (.const:xdc_runtime_Text_nameStatic__C)
                  000134a8    00000004     tcpEcho_pem4f.oem4f (.const:xdc_runtime_Text_nameUnknown__C)
                  000134ac    00000004     tcpEcho_pem4f.oem4f (.const:xdc_runtime_Text_nodeTab__C)
                  000134b0    00000004     tcpEcho_pem4f.oem4f (.const:xdc_runtime_Text_visitRopeFxn__C)
                  000134b4    00000002     tcpEcho_pem4f.oem4f (.const:ti_sysbios_hal_Hwi_Module__id__C)
                  000134b6    00000002     tcpEcho_pem4f.oem4f (.const:ti_sysbios_heaps_HeapMem_Module__id__C)
                  000134b8    00000002     tcpEcho_pem4f.oem4f (.const:ti_sysbios_knl_Task_Module__id__C)
                  000134ba    00000002     tcpEcho_pem4f.oem4f (.const:xdc_runtime_Core_Module__id__C)
                  000134bc    00000002     tcpEcho_pem4f.oem4f (.const:xdc_runtime_Error_Module__loggerDefined__C)
                  000134be    00000002     tcpEcho_pem4f.oem4f (.const:xdc_runtime_Error_maxDepth__C)
                  000134c0    00000002     tcpEcho_pem4f.oem4f (.const:xdc_runtime_Memory_Module__id__C)
                  000134c2    00000002     tcpEcho_pem4f.oem4f (.const:xdc_runtime_SysMin_flushAtExit__C)
                  000134c4    00000002     tcpEcho_pem4f.oem4f (.const:xdc_runtime_Text_charCnt__C)
                  000134c6    00000002     tcpEcho_pem4f.oem4f (.const:xdc_runtime_Text_isLoaded__C)
                  000134c8    00000002     tcpEcho_pem4f.oem4f (.const:xdc_runtime_Text_registryModsLastId__C)
                  000134ca    00000002     tcpEcho_pem4f.oem4f (.const:xdc_runtime_Text_unnamedModsLastId__C)

.cinit     0    000134d0    00000398     
                  000134d0    00000364     (.cinit..data.load) [load image, compression = lzss]
                  00013834    0000000c     (__TI_handler_table)
                  00013840    00000008     (.cinit..bss.load) [load image, compression = zero_init]
                  00013848    00000008     (.cinit..vecs.load) [load image, compression = zero_init]
                  00013850    00000018     (__TI_cinit_table)

.init_array 
*          0    00000000    00000000     UNINITIALIZED

.resetVecs 
*          0    00000000    0000003c     
                  00000000    0000003c     tcpEcho_pem4f.oem4f (.resetVecs)

.bss       0    20000380    0000ec28     UNINITIALIZED
                  20000380    00005000     (.common:ti_sysbios_heaps_HeapMem_Instance_State_0_buf__A)
                  20005380    000048a8     tcpEcho_pem4f.oem4f (.bss:NDK_MMBUFFER)
                  20009c28    0000004c     stk.aem4f : icmp.oem4f (.bss:_ICMPIn)
                  20009c74    0000000c     (.common:PBMQ_free)
                  20009c80    00003ef8     tcpEcho_pem4f.oem4f (.bss:NDK_PACKETMEM)
                  2000db78    00000800     tcpEcho_pem4f.oem4f (.bss:taskStackSection)
                  2000e378    00000360     (.common:ti_sysbios_family_arm_m3_Hwi_dispatchTable)
                  2000e6d8    00000120     rtsv7M4_T_le_v4SPD16_eabi.lib : trgmsg.c.obj (.bss:_CIOBUF_)
                  2000e7f8    00000100     stk.aem4f : igmp.oem4f (.bss:igmp)
                  2000e8f8    000000b8               : tcp.oem4f (.bss:tcps)
                  2000e9b0    000000b4     netctrl_min_ipv4.aem4f : netsrv.oem4f (.bss:ipcfgcopy)
                  2000ea64    00000090     drivers_tivaware.aem4f : EMACSnow.oem4f (.bss:g_pRxDescriptors)
                  2000eaf4    00000090                            : EMACSnow.oem4f (.bss:g_pTxDescriptors)
                  2000eb84    00000090                            : GPIOTiva.oem4f (.bss:gpioCallbackInfo)
                  2000ec14    00000080     (.common:xdc_runtime_SysMin_Module_State_0_outbuf__A)
                  2000ec94    00000068     stk.aem4f : ip.oem4f (.bss:ips)
                  2000ecfc    00000064               : nimu.oem4f (.bss:nimu_mcb)
                  2000ed60    0000004c               : icmp.oem4f (.bss:_ICMPOut)
                  2000edac    00000040     drivers_tivaware.aem4f : EMACSnow.oem4f (.bss:EMACSnow_private)
                  2000edec    00000028     stk.aem4f : vlan.oem4f (.bss:vlan_mcb)
                  2000ee14    00000024     netctrl_min_ipv4.aem4f : netsrv.oem4f (.bss:oscfgcopy)
                  2000ee38    00000024     stk.aem4f : udp.oem4f (.bss:udps)
                  2000ee5c    0000001c     (.common:BlockCount)
                  2000ee78    0000001c     (.common:BlockMax)
                  2000ee94    0000001c     (.common:PageCount)
                  2000eeb0    0000001c     (.common:PageMax)
                  2000eecc    00000018     (.common:stkEvent)
                  2000eee4    00000014     (.common:pfnHook)
                  2000eef8    00000010     (.common:igmpCount)
                  2000ef08    00000010     (.common:raweths)
                  2000ef18    00000010     (.common:raws)
                  2000ef28    0000000c     (.common:tpseudo)
                  2000ef34    0000000c     (.common:upseudo)
                  2000ef40    00000008     (.common:emacObjects)
                  2000ef48    00000008     (.common:parmbuf)
                  2000ef50    00000004     (.common:IPCache)
                  2000ef54    00000004     (.common:IPTrialAddress)
                  2000ef58    00000004     (.common:LastCLKTime)
                  2000ef5c    00000004     (.common:LastCLKValid)
                  2000ef60    00000004     (.common:NetHaltFlag)
                  2000ef64    00000004     (.common:NetReturnCode)
                  2000ef68    00000004     (.common:TimeMS)
                  2000ef6c    00000004     (.common:TimeS)
                  2000ef70    00000004     (.common:TimeStart)
                  2000ef74    00000004     (.common:_IGMPInDiscard)
                  2000ef78    00000004     (.common:_IGMPInQuery)
                  2000ef7c    00000004     (.common:_IGMPInQueryGroup)
                  2000ef80    00000004     (.common:_IGMPInResponse)
                  2000ef84    00000004     (.common:_IGMPOutResponse)
                  2000ef88    00000004     (.common:g_ulStatus)
                  2000ef8c    00000004     (.common:gpioInterruptVectors)
                  2000ef90    00000004     (.common:hEvent)
                  2000ef94    00000004     (.common:hTimer$1)
                  2000ef98    00000004     (.common:hTimer$1)
                  2000ef9c    00000004     (.common:raweth_pcb)
                  2000efa0    00000004     (.common:ti_sysbios_knl_Task_Instance_State_0_hookEnv__A)
                  2000efa4    00000004     (.common:ti_sysbios_knl_Task_Instance_State_1_hookEnv__A)

.data      0    2000efa8    00000824     UNINITIALIZED
                  2000efa8    000000b4     stk.aem4f : exec.oem4f (.data:_ipcfg)
                  2000f05c    00000098     tcpEcho_pem4f.oem4f (.data:ti_sysbios_knl_Task_Object__table__V)
                  2000f0f4    00000080     tcpEcho_pem4f.oem4f (.data:ti_sysbios_knl_Swi_Module_State_0_readyQ__A)
                  2000f174    00000080     tcpEcho_pem4f.oem4f (.data:ti_sysbios_knl_Task_Module_State_0_readyQ__A)
                  2000f1f4    0000004d     nettool_ipv4.aem4f : dhcptags.oem4f (.data:DHCPTypeCode)
                  2000f241    00000001     --HOLE--
                  2000f242    00000002     tcpEcho_pem4f.oem4f (.data:ti_sysbios_family_arm_m3_Hwi_Module_State_0_excActive__A)
                  2000f244    00000044     tcpEcho_pem4f.oem4f (.data:ti_sysbios_knl_Task_Module__state__V)
                  2000f288    00000040     netctrl_min_ipv4.aem4f : netsrv.oem4f (.data:CloseOrder)
                  2000f2c8    00000040                            : netsrv.oem4f (.data:OpenOrder)
                  2000f308    00000040     tcpEcho_pem4f.oem4f (.data:ti_sysbios_family_arm_lm4_Timer_Module_State_0_device__A)
                  2000f348    00000040     tcpEcho_pem4f.oem4f (.data:ti_sysbios_family_arm_lm4_Timer_Object__table__V)
                  2000f388    00000038     tcpEcho_pem4f.oem4f (.data:ti_sysbios_gates_GateMutex_Object__table__V)
                  2000f3c0    00000034     stk.aem4f : tcptime.oem4f (.data:tcp_backoff)
                  2000f3f4    00000034     tcpEcho_pem4f.oem4f (.data:ti_sysbios_family_arm_m3_Hwi_Module__state__V)
                  2000f428    00000032     drivers_tivaware.aem4f : EMACSnow.oem4f (.data)
                  2000f45a    00000002     tcpEcho_pem4f.oem4f (.data:xdc_runtime_Error_Module__state__V)
                  2000f45c    00000030     stk.aem4f : exec.oem4f (.data:tasks)
                  2000f48c    00000030     tcpEcho_pem4f.oem4f (.data:ti_sysbios_knl_Swi_Object__table__V)
                  2000f4bc    0000002c     tcpEcho_pem4f.oem4f (.data:ti_sysbios_knl_Clock_Module__state__V)
                  2000f4e8    00000028     stk.aem4f : rtc.oem4f (.data)
                  2000f510    00000024     os.aem4f : ossys.oem4f (.data:_oscfg)
                  2000f534    00000024              : mem.oem4f (.data)
                  2000f558    00000024     tcpEcho_pem4f.oem4f (.data:ti_sysbios_BIOS_Module__state__V)
                  2000f57c    00000020     tcpEcho_pem4f.oem4f (.data:ti_sysbios_family_arm_lm4_Timer_Module_State_0_handles__A)
                  2000f59c    0000001c     netctrl_min_ipv4.aem4f : netctrl.oem4f (.data)
                  2000f5b8    0000001c     tcpEcho_pem4f.oem4f (.data:ti_ndk_config_Global_Id2Size)
                  2000f5d4    0000001c     tcpEcho_pem4f.oem4f (.data:ti_sysbios_knl_Swi_Module__state__V)
                  2000f5f0    00000018     os.aem4f : task.oem4f (.data)
                  2000f608    00000018     stk.aem4f : sockpcb.oem4f (.data)
                  2000f620    00000018     tcpEcho_pem4f.oem4f (.data)
                  2000f638    00000018     tcpEcho_pem4f.oem4f (.data:ti_sysbios_family_arm_m3_Hwi_Object__table__V)
                  2000f650    00000018     tcpEcho_pem4f.oem4f (.data:ti_sysbios_heaps_HeapMem_Object__table__V)
                  2000f668    00000014     stk.aem4f : rtable.oem4f (.data)
                  2000f67c    00000010     EK_TM4C1294XL.obj (.data:gpioPinConfigs)
                  2000f68c    00000010     stk.aem4f : igmp.oem4f (.data)
                  2000f69c    0000000c     tcpEcho_pem4f.oem4f (.data:ti_sysbios_family_arm_lm4_Timer_Module__state__V)
                  2000f6a8    0000000c     tcpEcho_pem4f.oem4f (.data:xdc_runtime_SysMin_Module__state__V)
                  2000f6b4    0000000b     stk.aem4f : tcpout.oem4f (.data)
                  2000f6bf    00000001     --HOLE--
                  2000f6c0    00000008     rtsv7M4_T_le_v4SPD16_eabi.lib : _lock.c.obj (.data:$O1$$)
                  2000f6c8    00000008     EK_TM4C1294XL.obj (.data:NIMUDeviceTable)
                  2000f6d0    00000008     EK_TM4C1294XL.obj (.data:gpioCallbackFunctions)
                  2000f6d8    00000008     netctrl_min_ipv4.aem4f : netsrv.oem4f (.data)
                  2000f6e0    00000008     stk.aem4f : exec.oem4f (.data)
                  2000f6e8    00000008               : icmp.oem4f (.data)
                  2000f6f0    00000008               : ip.oem4f (.data)
                  2000f6f8    00000008               : ipin.oem4f (.data)
                  2000f700    00000008               : lli.oem4f (.data)
                  2000f708    00000008               : tcp.oem4f (.data)
                  2000f710    00000008               : timer.oem4f (.data)
                  2000f718    00000008     tcpEcho_pem4f.oem4f (.data:ti_sysbios_family_arm_m3_Hwi_Module__root__V)
                  2000f720    00000008     tcpEcho_pem4f.oem4f (.data:ti_sysbios_gates_GateHwi_Module__root__V)
                  2000f728    00000008     tcpEcho_pem4f.oem4f (.data:ti_sysbios_gates_GateMutex_Module__root__V)
                  2000f730    00000008     tcpEcho_pem4f.oem4f (.data:ti_sysbios_heaps_HeapMem_Module__root__V)
                  2000f738    00000008     tcpEcho_pem4f.oem4f (.data:ti_sysbios_knl_Clock_Module__root__V)
                  2000f740    00000008     tcpEcho_pem4f.oem4f (.data:ti_sysbios_knl_Queue_Module__root__V)
                  2000f748    00000008     tcpEcho_pem4f.oem4f (.data:ti_sysbios_knl_Semaphore_Module__root__V)
                  2000f750    00000008     tcpEcho_pem4f.oem4f (.data:ti_sysbios_knl_Swi_Module__root__V)
                  2000f758    00000008     tcpEcho_pem4f.oem4f (.data:ti_sysbios_knl_Task_Module__root__V)
                  2000f760    00000008     tcpEcho_pem4f.oem4f (.data:xdc_runtime_Registry_Module__state__V)
                  2000f768    00000008     tcpEcho_pem4f.oem4f (.data:xdc_runtime_Startup_Module__state__V)
                  2000f770    00000008     tcpEcho_pem4f.oem4f (.data:xdc_runtime_System_Module_State_0_atexitHandlers__A)
                  2000f778    00000008     tcpEcho_pem4f.oem4f (.data:xdc_runtime_System_Module__state__V)
                  2000f780    00000006     EK_TM4C1294XL.obj (.data:macAddress)
                  2000f786    00000006     stk.aem4f : lliout.oem4f (.data)
                  2000f78c    00000005     drivers_tivaware.aem4f : GPIOTiva.oem4f (.data)
                  2000f791    00000003     --HOLE--
                  2000f794    00000004                            : EMAC.oem4f (.data)
                  2000f798    00000004     hal_timer_bios.aem4f : lltimer.oem4f (.data)
                  2000f79c    00000004     nettool_ipv4.aem4f : config.oem4f (.data)
                  2000f7a0    00000004     rtsv7M4_T_le_v4SPD16_eabi.lib : stkdepth_vars.c.obj (.data)
                  2000f7a4    00000004     stk.aem4f : bind.oem4f (.data)
                  2000f7a8    00000004               : ipfrag.oem4f (.data)
                  2000f7ac    00000004               : lliin.oem4f (.data)
                  2000f7b0    00000004               : node.oem4f (.data)
                  2000f7b4    00000004               : pbm.oem4f (.data)
                  2000f7b8    00000004     tcpEcho_pem4f.oem4f (.data:ti_sysbios_family_arm_m3_Hwi_Module_State_0_excContext__A)
                  2000f7bc    00000004     tcpEcho_pem4f.oem4f (.data:ti_sysbios_family_arm_m3_Hwi_Module_State_0_excStack__A)
                  2000f7c0    00000004     tcpEcho_pem4f.oem4f (.data:ti_sysbios_gates_GateHwi_Object__table__V)
                  2000f7c4    00000004     tcpEcho_pem4f.oem4f (.data:ti_sysbios_knl_Task_Module_State_0_idleTask__A)
                  2000f7c8    00000004     tcpEcho_pem4f.oem4f (.data:xdc_runtime_Memory_Module__state__V)

.stack     0    2000f7d0    00000800     UNINITIALIZED
                  2000f7d0    00000800     --HOLE--

.bootVecs 
*          0    00000000    00000008     DSECT
                  00000000    00000008     boot.aem4f : boot.oem4f (.bootVecs)

.vecs      0    20000000    00000360     UNINITIALIZED
                  20000000    00000360     tcpEcho_pem4f.oem4f (.vecs)

xdc.meta   0    00000000    000000e2     COPY SECTION
                  00000000    000000e2     tcpEcho_pem4f.oem4f (xdc.meta)

MODULE SUMMARY

       Module                       code    ro data   rw data
       ------                       ----    -------   -------
    .\
       tcpEcho.obj                  1034    0         0      
       EK_TM4C1294XL.obj            492     60        46     
       tcpEchoHooks.obj             138     0         0      
    +--+----------------------------+-------+---------+---------+
       Total:                       1664    60        46     
                                                             
    C:\Users\Daniel\workspace_v8\MicPos_tcp\Debug\configPkg\package\cfg\
       tcpEcho_pem4f.oem4f          2851    8198      60264  
    +--+----------------------------+-------+---------+---------+
       Total:                       2851    8198      60264  
                                                             
    C:/ti/tirtos_tivac_2_16_00_08/products/TivaWare_C_Series-2.1.1.71b/driverlib/ccs/Debug/driverlib.lib
       emac.obj                     756     24        0      
       gpio.obj                     548     144       0      
       sysctl.obj                   194     0         0      
       flash.obj                    20      0         0      
    +--+----------------------------+-------+---------+---------+
       Total:                       1518    168       0      
                                                             
    C:/ti/tirtos_tivac_2_16_00_08/products/tidrivers_tivac_2_16_00_08/packages/ti/drivers/lib/drivers_tivaware.aem4f
       EMACSnow.oem4f               2006    8         406    
       GPIOTiva.oem4f               684     156       153    
       EMAC.oem4f                   52      0         4      
    +--+----------------------------+-------+---------+---------+
       Total:                       2742    164       563    
                                                             
    C:\Users\Daniel\workspace_v8\MicPos_tcp\src\sysbios\sysbios.aem4f
       BIOS.obj                     10110   0         0      
       m3_Hwi_asm.obj               314     0         0      
       m3_TaskSupport_asm.obj       180     0         0      
       m3_Hwi_asm_switch.obj        118     0         0      
    +--+----------------------------+-------+---------+---------+
       Total:                       10722   0         0      
                                                             
    C:\ti\ccsv8\tools\compiler\ti-cgt-arm_18.1.2.LTS\lib\rtsv7M4_T_le_v4SPD16_eabi.lib
       trgmsg.c.obj                 108     0         288    
       memcpy_t2.asm.obj            156     0         0      
       memset_t2.asm.obj            122     0         0      
       copy_decompress_lzss.c.obj   104     0         0      
       hostwrite.c.obj              88      0         0      
       cpy_tbl.c.obj                76      0         0      
       u_divt2.asm.obj              64      0         0      
       _lock.c.obj                  26      0         8      
       args_main.c.obj              24      0         0      
       strcmp.c.obj                 24      0         0      
       strcpy.c.obj                 20      0         0      
       strlen.c.obj                 20      0         0      
       copy_decompress_none.c.obj   14      0         0      
       copy_zero_init.c.obj         12      0         0      
       hostopen.c.obj               0       0         8      
       exit.c.obj                   4       0         0      
       stkdepth_vars.c.obj          0       0         4      
       div0.asm.obj                 2       0         0      
    +--+----------------------------+-------+---------+---------+
       Total:                       864     0         308    
                                                             
    C:\ti\tirtos_tivac_2_16_00_08\products\bios_6_45_01_29\packages\ti\catalog\arm\cortexm4\tiva\ce\lib\Boot.aem4f
       Boot_sysctl.oem4f            628     452       0      
       Boot.oem4f                   152     0         0      
    +--+----------------------------+-------+---------+---------+
       Total:                       780     452       0      
                                                             
    C:\ti\tirtos_tivac_2_16_00_08\products\bios_6_45_01_29\packages\ti\targets\arm\rtsarm\lib\auto_init.aem4f
       auto_init.oem4f              160     0         0      
    +--+----------------------------+-------+---------+---------+
       Total:                       160     0         0      
                                                             
    C:\ti\tirtos_tivac_2_16_00_08\products\bios_6_45_01_29\packages\ti\targets\arm\rtsarm\lib\boot.aem4f
       boot.oem4f                   88      0         0      
    +--+----------------------------+-------+---------+---------+
       Total:                       88      0         0      
                                                             
    C:\ti\tirtos_tivac_2_16_00_08\products\bios_6_45_01_29\packages\ti\targets\arm\rtsarm\lib\ti.targets.arm.rtsarm.aem4f
       System.oem4f                 1277    0         0      
       Text.oem4f                   672     0         0      
       Error.oem4f                  528     0         0      
       Core-mem.oem4f               358     0         0      
       Startup.oem4f                328     0         0      
       SysMin.oem4f                 248     0         0      
       Core-smem.oem4f              204     0         0      
       Memory.oem4f                 176     0         0      
       Assert.oem4f                 84      0         0      
       Core-params.oem4f            70      0         0      
       Core-label.oem4f             52      0         0      
       Registry.oem4f               32      0         0      
       Gate.oem4f                   28      0         0      
       xdc_noinit.oem4f             6       0         0      
    +--+----------------------------+-------+---------+---------+
       Total:                       4063    0         0      
                                                             
    C:\ti\tirtos_tivac_2_16_00_08\products\ndk_2_25_00_09\packages\ti\ndk\hal\ser_stub\lib\hal_ser_stub.aem4f
       llserstb.oem4f               10      0         0      
    +--+----------------------------+-------+---------+---------+
       Total:                       10      0         0      
                                                             
    C:\ti\tirtos_tivac_2_16_00_08\products\ndk_2_25_00_09\packages\ti\ndk\hal\timer_bios\lib\hal_timer_bios.aem4f
       lltimer.oem4f                252     0         28     
    +--+----------------------------+-------+---------+---------+
       Total:                       252     0         28     
                                                             
    C:\ti\tirtos_tivac_2_16_00_08\products\ndk_2_25_00_09\packages\ti\ndk\hal\userled_stub\lib\hal_userled_stub.aem4f
       llled.oem4f                  6       0         0      
    +--+----------------------------+-------+---------+---------+
       Total:                       6       0         0      
                                                             
    C:\ti\tirtos_tivac_2_16_00_08\products\ndk_2_25_00_09\packages\ti\ndk\netctrl\lib\netctrl_min_ipv4.aem4f
       netsrv.oem4f                 1122    0         352    
       netctrl.oem4f                884     0         60     
    +--+----------------------------+-------+---------+---------+
       Total:                       2006    0         412    
                                                             
    C:\ti\tirtos_tivac_2_16_00_08\products\ndk_2_25_00_09\packages\ti\ndk\nettools\lib\nettool_ipv4.aem4f
       config.oem4f                 1760    0         4      
       dhcpsm.oem4f                 1028    0         0      
       dhcpbild.oem4f               508     0         0      
       dhcppkt.oem4f                462     0         0      
       dhcpmain.oem4f               406     0         0      
       dhcptags.oem4f               264     0         77     
       dhcpsock.oem4f               332     0         0      
       inetaddr.oem4f               276     0         0      
       ipaddr.oem4f                 190     0         4      
    +--+----------------------------+-------+---------+---------+
       Total:                       5226    0         85     
                                                             
    C:\ti\tirtos_tivac_2_16_00_08\products\ndk_2_25_00_09\packages\ti\ndk\os\lib\os.aem4f
       mem.oem4f                    1312    0         148    
       task.oem4f                   1054    0         24     
       semaphore.oem4f              226     0         0      
       ossys.oem4f                  140     0         36     
    +--+----------------------------+-------+---------+---------+
       Total:                       2732    0         208    
                                                             
    C:\ti\tirtos_tivac_2_16_00_08\products\ndk_2_25_00_09\packages\ti\ndk\stack\lib\stk.aem4f
       tcpin.oem4f                  3312    0         0      
       sock.oem4f                   3010    0         0      
       tcpout.oem4f                 2608    0         11     
       igmp.oem4f                   1584    0         308    
       nimu.oem4f                   1549    0         100    
       sockpcb.oem4f                1422    0         24     
       rtable.oem4f                 1138    0         24     
       tcpprot.oem4f                1118    0         0      
       node.oem4f                   1079    0         4      
       ipout.oem4f                  1032    0         0      
       udp.oem4f                    968     0         48     
       ipin.oem4f                   998     0         8      
       tcptime.oem4f                821     0         52     
       socket.oem4f                 828     0         0      
       sb.oem4f                     826     0         0      
       icmpin.oem4f                 756     0         0      
       icmp.oem4f                   580     0         160    
       ipfrag.oem4f                 712     0         4      
       rtc.oem4f                    592     62        60     
       sockint.oem4f                704     0         0      
       route.oem4f                  702     0         0      
       lliout.oem4f                 672     0         6      
       tcp.oem4f                    472     0         204    
       lli.oem4f                    652     0         8      
       bind.oem4f                   650     0         4      
       lliin.oem4f                  592     0         4      
       pbm.oem4f                    574     0         16     
       exec.oem4f                   302     0         236    
       rawethsock.oem4f             536     0         0      
       ip.oem4f                     378     0         120    
       vlan.oem4f                   396     0         40     
       raw.oem4f                    400     0         16     
       pipe.oem4f                   410     0         0      
       file.oem4f                   398     0         0      
       fileuser.oem4f               312     0         0      
       timer.oem4f                  258     0         8      
       raweth.oem4f                 224     0         16     
       rawethsock_pcb.oem4f         236     0         4      
       sockprot.oem4f               98      84        0      
       listlib.oem4f                110     0         0      
       rawethsock_prot.oem4f        8       0         0      
       nat.oem4f                    2       0         0      
    +--+----------------------------+-------+---------+---------+
       Total:                       34019   146       1485   
                                                             
       Stack:                       0       0         2048   
       Linker Generated:            0       920       0      
    +--+----------------------------+-------+---------+---------+
       Grand Total:                 69703   10108     65447  


LINKER GENERATED COPY TABLES

__TI_cinit_table @ 00013850 records: 3, size/record: 8, table size: 24
	.data: load addr=000134d0, load size=00000364 bytes, run addr=2000efa8, run size=00000824 bytes, compression=lzss
	.bss: load addr=00013840, load size=00000008 bytes, run addr=20000380, run size=0000ec28 bytes, compression=zero_init
	.vecs: load addr=00013848, load size=00000008 bytes, run addr=20000000, run size=00000360 bytes, compression=zero_init


LINKER GENERATED HANDLER TABLE

__TI_handler_table @ 00013834 records: 3, size/record: 4, table size: 12
	index: 0, handler: __TI_decompress_lzss
	index: 1, handler: __TI_decompress_none
	index: 2, handler: __TI_zero_init


GLOBAL SYMBOLS: SORTED ALPHABETICALLY BY Name 

address   name                                                                 
-------   ----                                                                 
0000fe0d  BindFindByHost                                                       
000104b9  BindFindByIF                                                         
0000faf5  BindFindByNet                                                        
0000ce3d  BindFree                                                             
00010e99  BindGetFirst                                                         
000040d5  BindGetIF                                                            
0000fe31  BindGetIFByDBCast                                                    
0001067d  BindGetIP                                                            
00004a95  BindGetNext                                                          
00010ced  BindIF2IPHost                                                        
00010cfd  BindIFNet2IPHost                                                     
00010ac1  BindIPHost2IF                                                        
00004d31  BindNew                                                              
2000ee5c  BlockCount                                                           
2000ee78  BlockMax                                                             
00009a55  C$$EXIT                                                              
0000ec0f  C$$IO$$                                                              
00004fb5  CfgAddEntry                                                          
0000d0fd  CfgEntryDeRef                                                        
0000e779  CfgEntryGetData                                                      
0000fd01  CfgEntryInfo                                                         
00010171  CfgEntryRef                                                          
00009b85  CfgExecute                                                           
0000c0c1  CfgFree                                                              
0000a339  CfgGetEntry                                                          
0000c579  CfgGetEntryCnt                                                       
0000f229  CfgGetImmediate                                                      
0000aad9  CfgGetNextEntry                                                      
0000da13  CfgNew                                                               
000099c1  CfgRemoveEntry                                                       
00010ea5  CfgSetDefault                                                        
0000c935  CfgSetExecuteOrder                                                   
0000ee11  CfgSetService                                                        
00012e88  Code2Err                                                             
0000e641  DHCPClose                                                            
000047ed  DHCPOpen                                                             
0000baed  DbgPrintf                                                            
2000f630  DomainName                                                           
00005705  EK_TM4C1294XL_initEMAC                                               
00011055  EK_TM4C1294XL_initGPIO                                               
0000897d  EK_TM4C1294XL_initGeneral                                            
0000f423  EMACAddrSet                                                          
0000ea91  EMACConfigGet                                                        
0000ee45  EMACConfigSet                                                        
00010d0d  EMACFrameFilterSet                                                   
0000afb1  EMACInit                                                             
0000ee79  EMACIntClear                                                         
0000e7b5  EMACIntDisable                                                       
0000ea55  EMACIntEnable                                                        
0000f787  EMACIntStatus                                                        
0000ceed  EMACPHYConfigSet                                                     
0000fd27  EMACPHYRead                                                          
0000fd4d  EMACPHYWrite                                                         
00010a11  EMACReset                                                            
0000f3eb  EMACRxDMADescriptorListSet                                           
00010a27  EMACRxEnable                                                         
00008379  EMACSnow_InitDMADescriptors                                          
00003589  EMACSnow_NIMUInit                                                    
0000eead  EMACSnow_emacPoll                                                    
000107b9  EMACSnow_emacSend                                                    
00006319  EMACSnow_emacStart                                                   
0000a6d9  EMACSnow_emacStop                                                    
00010e41  EMACSnow_emacioctl                                                   
0001333c  EMACSnow_fxnTable                                                    
0000ab55  EMACSnow_hwiIntFxn                                                   
00010eb1  EMACSnow_init                                                        
0000eee1  EMACSnow_isLinkUp                                                    
0000fe55  EMACSnow_pkt_service                                                 
0000a3bd  EMACSnow_processPhyInterrupt                                         
00010cb3  EMACTxDMADescriptorListSet                                           
0001105d  EMACTxDMAPollDemand                                                  
00010a3d  EMACTxEnable                                                         
00013244  EMAC_config                                                          
0000ef15  EMAC_init                                                            
0000ef49  ExecClose                                                            
00010d1d  ExecHRef                                                             
00010e4f  ExecLowResource                                                      
000094f1  ExecOpen                                                             
0000fe9d  ExecTimer                                                            
0000f7b3  FdSignalEvent                                                        
0000c5d9  FdWaitEvent                                                          
00010ad5  FlashUserGet                                                         
0000fa21  GPIODirModeSet                                                       
000110a1  GPIOIntClear                                                         
00010e5d  GPIOIntStatus                                                        
0000d0a5  GPIOIntTypeSet                                                       
000055d5  GPIOPadConfigSet                                                     
0000da5d  GPIOPinConfigure                                                     
00010c55  GPIOPinTypeEthernetLED                                               
000110a7  GPIOPinWrite                                                         
000132ec  GPIOTiva_config                                                      
0000c125  GPIO_hwiIntFxn                                                       
00009e59  GPIO_init                                                            
0000d3f5  GPIO_setCallback                                                     
00004945  GPIO_setConfig                                                       
2000f62c  GatewayIP                                                            
0000cf45  HOSTwrite                                                            
0000dff5  ICMPChecksum                                                         
000054a1  ICMPGenPacket                                                        
00002939  ICMPInput                                                            
00007d21  ICMPSendRtAdv                                                        
00003c39  IGMPInput                                                            
0000ac4d  IGMPJoin                                                             
0000d151  IGMPLeave                                                            
0000b2f9  IGMPLeaveHostGroup                                                   
00009c15  IGMPMsg                                                              
0000f7e1  IGMPTestGroup                                                        
0000edd9  IPChecksum                                                           
000091d5  IPGetRoute                                                           
00009ee5  IPMsg                                                                
000026ed  IPReasm                                                              
0000e039  IPReasmFree                                                          
0000eac9  IPReasmTimeout                                                       
000107d1  IPRtChange                                                           
00001d99  IPRxPacket                                                           
00001991  IPTxPacket                                                           
00004527  LED_TOGGLE                                                           
0000fb1d  LLIFree                                                              
000070f5  LLIGenArpPacket                                                      
0000e07d  LLIGetValidTime                                                      
0000daa5  LLIMsg                                                               
0000a7d9  LLINew                                                               
000038f1  LLIRxPacket                                                          
00003741  LLITxIpPacket                                                        
0000e481  LLIValidateRoute                                                     
2000f624  LocalIPAddr                                                          
2000f628  LocalIPMask                                                          
0001021d  NC_BootComplete                                                      
00010d2d  NC_IPUpdate                                                          
00003f61  NC_NetStart                                                          
00010ae9  NC_NetStop                                                           
0000fb45  NC_SystemClose                                                       
000096c5  NC_SystemOpen                                                        
0000b5af  NDK_accept                                                           
0000d445  NDK_bind                                                             
0000f80d  NDK_hookCreate                                                       
00010afd  NDK_hookExit                                                         
00010ebd  NDK_hookInit                                                         
0000e3b9  NDK_listen                                                           
0000b8c1  NDK_recv                                                             
0000b61f  NDK_send                                                             
0000b029  NDK_sendto                                                           
0000acc9  NDK_setsockopt                                                       
0000be4f  NDK_socket                                                           
000104f1  NDK_sprintf                                                          
00006ffd  NDK_vsprintf                                                         
000093b5  NIMUAddEthernetHeader                                                
0001050d  NIMUAddHeader                                                        
0000fb6d  NIMUCreatePacket                                                     
2000f6c8  NIMUDeviceTable                                                      
0000fec1  NIMUFindByIndex                                                      
0000ef7d  NIMUFindByName                                                       
00010d3d  NIMUGetRsvdSizeInfo                                                  
0000efb1  NIMUInit                                                             
00005dcd  NIMUIoctl                                                            
0000fb95  NIMUPacketService                                                    
0000f865  NIMUPacketServiceCheck                                               
00007c4d  NIMUReceivePacket                                                    
0000ad45  NIMURegister                                                         
00010b11  NIMUSendPacket                                                       
00010ec9  NIMUSetRsvdSizeInfo                                                  
0000b36d  NIMUShutdown                                                         
0000c639  NIMUUnregister                                                       
0000a859  NS_BootTask                                                          
0000f485  NS_PreBoot                                                           
00006317  NatMsg                                                               
00007821  NodeAdd                                                              
0000d6c9  NodeDeRef                                                            
0000c699  NodeFind                                                             
0000eb01  NodeGetRt                                                            
000072d5  NodeSetRt                                                            
00005ee1  NodeTreeFree                                                         
0000bb59  NodeTreeNew                                                          
0000daed  NodeWalk                                                             
00010ed5  NotifyLowResource                                                    
0000d765  NtAddNetwork                                                         
0000de51  NtIfIdx2Ip                                                           
00010b25  NtRemoveNetwork                                                      
000110c9  OEMSysCritOff                                                        
00010f69  OEMSysCritOn                                                         
0000fa4b  PBMQ_deq                                                             
0000c189  PBMQ_enq                                                             
20009c74  PBMQ_free                                                            
0000a8d9  PBM_alloc                                                            
00010ee1  PBM_close                                                            
0000e4c1  PBM_copy                                                             
0000adc1  PBM_free                                                             
0000beb9  PBM_open                                                             
2000f534  PITCount                                                             
2000f53c  PITHigh                                                              
2000f538  PITUsed                                                              
2000ee94  PageCount                                                            
2000eeb0  PageMax                                                              
0000f891  PipeClose                                                            
00006b2d  PipeRecv                                                             
0000b209  PipeSend                                                             
0000fee5  RTCAddHook                                                           
0000c6f9  RTCMsg                                                               
0001025d  RTCRemoveHook                                                        
0000424d  RTCReport                                                            
0000b3e1  RawEthRxPacket                                                       
0000fd73  RawEthSockClose                                                      
0000811d  RawEthSockNew                                                        
0000efe5  RawEthSockNotify                                                     
0000d1a5  RawEthSockPcbAttach                                                  
000107e9  RawEthSockPcbCleanup                                                 
0000db35  RawEthSockPcbDetach                                                  
0000ff09  RawEthSockPcbFind                                                    
00010b39  RawEthSockPcbInit                                                    
000082ad  RawEthSockPrAttach                                                   
000087fd  RawEthSockPrDetach                                                   
0000de97  RawEthSockSend                                                       
00008dcd  RawEthSockSet                                                        
0000bbc5  RawEthTxPacket                                                       
00005ff1  RawInput                                                             
0000a959  RawOutput                                                            
0000e0c1  RouteMsg                                                             
0000620d  RtCreate                                                             
0000f25b  RtDeRef                                                              
00006101  RtFind                                                               
0000cc79  RtRedirect                                                           
0000c819  RtRemove                                                             
0000f28d  RtSetFailure                                                         
0000ff51  RtSetTimeout                                                         
0000e82d  RtWalkBegin                                                          
0000e105  RtWalkEnd                                                            
0000b931  RtWalkNext                                                           
0000f2bf  SBFlush                                                              
0000f759  SBFree                                                               
0000c515  SBNew                                                                
000043bd  SBRead                                                               
0000f2f1  SBSetMax                                                             
0000758d  SBWrite                                                              
UNDEFED   SHT$$INIT_ARRAY$$Base                                                
UNDEFED   SHT$$INIT_ARRAY$$Limit                                               
0000cff5  SemCreate                                                            
0000b53d  SemCreateBinary                                                      
00010eed  SemDelete                                                            
000088bd  SemPend                                                              
00008ba5  SemPost                                                              
00008d15  SemReset                                                             
0000aebd  SockAccept                                                           
0000f4b5  SockBind                                                             
0000d1f9  SockCleanPcb                                                         
000071e5  SockClose                                                            
0000468d  SockConnect                                                          
00009085  SockCreatePacket                                                     
0000d97f  SockDisconnect                                                       
0000f4e5  SockGetName                                                          
0000f323  SockIntAbort                                                         
0000bf21  SockListen                                                           
00003dd1  SockNew                                                              
000050f1  SockNotify                                                           
0000f8bd  SockPcbAttach                                                        
00007aa5  SockPcbBind                                                          
0000ff75  SockPcbCleanup                                                       
0000b455  SockPcbConnect                                                       
0000a229  SockPcbCtlError                                                      
0000e149  SockPcbDetach                                                        
00005831  SockPcbResolve                                                       
0000db7d  SockPcbResolveChain                                                  
0000e501  SockPcbRtChange                                                      
00010c67  SockPrAttach                                                         
0000f019  SockPrCtlError                                                       
00010529  SockPrDetach                                                         
000031ad  SockRecv                                                             
0000522d  SockSend                                                             
00002469  SockSet                                                              
00010c79  SockSetOOBData                                                       
00010697  SockSetOOBMark                                                       
0000b771  SockShutdown                                                         
0000c1ed  SockSpawnAbort                                                       
0000d7b1  SockValidateRoute                                                    
000110ad  SysCtlDelay                                                          
0000f04d  SysCtlPeripheralEnable                                               
0000eb39  SysCtlPeripheralReady                                                
0000d4e5  SysCtlPeripheralReset                                                
0001106d  TaskBlock                                                            
0000e6bf  TaskCreate                                                           
00010545  TaskDestroy                                                          
00008ba9  TaskExit                                                             
00006e15  TaskGetEnv                                                           
00008fd5  TaskSelf                                                             
000073c5  TaskSetEnv                                                           
0000912d  TaskSetPri                                                           
000082b1  TaskSleep                                                            
0000c759  TcpChecksum                                                          
0000eb71  TcpClose                                                             
0000dbc5  TcpDrop                                                              
00005b9d  TcpGenPacket                                                         
00000041  TcpInput                                                             
00000ca9  TcpOutput                                                            
0000a441  TcpPrAttach                                                          
0000e869  TcpPrConnect                                                         
0000dedd  TcpPrCtlError                                                        
0000d3a1  TcpPrDetach                                                          
0000e6fd  TcpPrDisconnect                                                      
0000bde5  TcpPrInherit                                                         
0000ff99  TcpPrListen                                                          
000110b3  TcpPrRecv                                                            
0000e541  TcpPrSend                                                            
0000e3fb  TcpPrSendOOB                                                         
000078f9  TcpPrSetOption                                                       
0000e8a5  TcpSetPersist                                                        
000108d9  TcpTimeoutAdd                                                        
00004e75  TcpTimeoutCheck                                                      
00008c61  TcpTimeoutKeep                                                       
0000d24d  TcpTimeoutPersist                                                    
0001027d  TcpTimeoutRemove                                                     
000074ad  TcpTimeoutRexmt                                                      
0000b281  TcpTimeoutSackRexmt                                                  
0000ffbd  TcpTimeoutWait2                                                      
0000ccd3  TcpValidateMetrics                                                   
0000b0a1  TcpXmitTimer                                                         
00010b4d  TimerFree                                                            
0000eba9  TimerHSTick                                                          
0000d9c9  TimerNew                                                             
0000bc31  UdpChecksum                                                          
00002b75  UdpInput                                                             
00005955  UdpOutput                                                            
00008741  VLANDeinit                                                           
0000fc35  VLANInit                                                             
0000c8d5  VLANReceivePacket                                                    
20009c28  _ICMPIn                                                              
2000f6e8  _ICMPInErrors                                                        
2000ed60  _ICMPOut                                                             
2000f6ec  _ICMPOutErrors                                                       
2000f694  _IGMPForceVersion1                                                   
2000ef74  _IGMPInDiscard                                                       
2000ef78  _IGMPInQuery                                                         
2000ef7c  _IGMPInQueryGroup                                                    
2000ef80  _IGMPInResponse                                                      
2000ef84  _IGMPOutResponse                                                     
2000f6f0  _IPExecuting                                                         
2000f7a8  _IPReasmPtr                                                          
0000dc0d  _LLIExpListInsert                                                    
0000f8e9  _LLIExpListRemove                                                    
00008aed  _LLITimeoutCheck                                                     
0000f915  _LLITimeoutFlush                                                     
0000dc55  _RtExpListInsert                                                     
0000f941  _RtExpListRemove                                                     
0000bf89  _RtNodeInsert                                                        
0000e91d  _RtNodeRemove                                                        
00007d1f  _TaskInit                                                            
000096c3  _TaskShutdown                                                        
00000000  __ASM__                                                              
2000e6d8  __CIOBUF_                                                            
00000060  __ISA__                                                              
00000073  __PLAT__                                                             
2000ffd0  __STACK_END                                                          
00000800  __STACK_SIZE                                                         
00000094  __TARG__                                                             
00013850  __TI_CINIT_Base                                                      
00013868  __TI_CINIT_Limit                                                     
00013834  __TI_Handler_Table_Base                                              
00013840  __TI_Handler_Table_Limit                                             
00009275  __TI_auto_init                                                       
0000bff1  __TI_decompress_lzss                                                 
00010e6b  __TI_decompress_none                                                 
ffffffff  __TI_pprof_out_hndl                                                  
ffffffff  __TI_prof_data_size                                                  
ffffffff  __TI_prof_data_start                                                 
0000f081  __TI_readmsg                                                         
000134d0  __TI_static_base__                                                   
0000ebe1  __TI_writemsg                                                        
00010f29  __TI_zero_init                                                       
000000ba  __TRDR__                                                             
0000b2f7  __aeabi_idiv0                                                        
0000b2f7  __aeabi_ldiv0                                                        
0000af37  __aeabi_memclr                                                       
0000af37  __aeabi_memclr4                                                      
0000af37  __aeabi_memclr8                                                      
0000958d  __aeabi_memcpy                                                       
0000958d  __aeabi_memcpy4                                                      
0000958d  __aeabi_memcpy8                                                      
0000af39  __aeabi_memset                                                       
0000af39  __aeabi_memset4                                                      
0000af39  __aeabi_memset8                                                      
0000e581  __aeabi_uidiv                                                        
0000e581  __aeabi_uidivmod                                                     
ffffffff  __binit__                                                            
ffffffff  __c_args__                                                           
2000f7d0  __stack                                                              
000110b9  __xdc__init                                                          
2000f634  __xdc__init__addr                                                    
000108f1  _args_main                                                           
0000ce95  _c_int00                                                             
2000efa8  _ipcfg                                                               
0000988d  _llSerialInit                                                        
000099bf  _llSerialServiceCheck                                                
0000a19f  _llSerialShutdown                                                    
0000e959  _llTimerInit                                                         
00010ef9  _llTimerShutdown                                                     
0000a337  _llUserLedInit                                                       
0000a6d7  _llUserLedShutdown                                                   
2000f6c0  _lock                                                                
00009f71  _mmInit                                                              
0000aad7  _nop                                                                 
2000f510  _oscfg                                                               
00010f05  _register_lock                                                       
00010f11  _register_unlock                                                     
2000f6c4  _unlock                                                              
00009a55  abort                                                                
ffffffff  binit                                                                
0000d7fd  copy_in                                                              
0000cd2d  dhcpBuildDecline                                                     
0000ec19  dhcpBuildDiscover                                                    
0000c7b9  dhcpBuildOptions                                                     
00009453  dhcpBuildRequest                                                     
0000b7e1  dhcpDecodeType                                                       
0000ec51  dhcpOptionsClear                                                     
0000662d  dhcpPacketProcess                                                    
0000fc5d  dhcpPacketReceive                                                    
0000f515  dhcpPacketSend                                                       
00010909  dhcpSocketClose                                                      
00007669  dhcpSocketOpen                                                       
00007745  dhcpState                                                            
00007f85  dhcpVerifyMessage                                                    
00013314  emacHWAttrs                                                          
2000ef40  emacObjects                                                          
2000f428  enablePrefetch                                                       
0000aa59  fdClose                                                              
0000e43d  fdCloseSession                                                       
0000b119  fdOpenSession                                                        
00010a53  fdint_freefdt                                                        
000106b1  fdint_getfdt                                                         
0000dc9d  fdint_lockfd                                                         
0001102d  fdint_signalevent                                                    
00011037  fdint_signaltimeout                                                  
0000e73b  fdint_unlockfd                                                       
0000ec89  fdint_waitevent                                                      
2000ef88  g_ulStatus                                                           
2000f6d0  gpioCallbackFunctions                                                
2000f67c  gpioPinConfigs                                                       
00010c8b  inet_addr                                                            
0000672f  inet_aton                                                            
2000ec94  ips                                                                  
00010921  list_add                                                             
00009aed  list_get_head                                                        
00009d35  list_get_next                                                        
00010441  list_remove                                                          
0000f545  list_remove_node                                                     
00006529  llEnter                                                              
0000b191  llExit                                                               
0000b27f  llSerialService                                                      
00010f35  llTimerGetStartTime                                                  
0000e1d1  llTimerGetTime                                                       
0000c251  llTimerTick                                                          
2000f780  macAddress                                                           
00009929  main                                                                 
2000f7a0  main_func_sp                                                         
0000958d  memcpy                                                               
0000af3f  memset                                                               
00003a9d  mmAlloc                                                              
00009ca5  mmBulkAlloc                                                          
0000a4c5  mmBulkFree                                                           
0000cd87  mmCopy                                                               
0000a549  mmFree                                                               
0000df23  mmZeroInit                                                           
0000b4c9  netOpenHook                                                          
2000ecfc  nimu_mcb                                                             
00010de1  osi_TaskDisable                                                      
00010d81  osi_start                                                            
2000ef48  parmbuf                                                              
2000f42c  phyCounter                                                           
2000f4e8  pstrMsgName                                                          
2000f70c  ptTimeFirst                                                          
2000ef9c  raweth_pcb                                                           
2000ef08  raweths                                                              
2000ef18  raws                                                                 
2000eecc  stkEvent                                                             
00010939  strcmp                                                               
00010b9d  strcpy                                                               
00010bb1  strlen                                                               
000033a1  tcpHandler                                                           
000085c5  tcpWorker                                                            
2000f708  tcp_iss                                                              
2000e8f8  tcps                                                                 
00013374  ti_catalog_arm_cortexm4_tiva_ce_Boot_A_mustNotUseEnhancedClockMode__C
00013378  ti_catalog_arm_cortexm4_tiva_ce_Boot_Module__diagsEnabled__C         
0001337c  ti_catalog_arm_cortexm4_tiva_ce_Boot_Module__diagsIncluded__C        
00013380  ti_catalog_arm_cortexm4_tiva_ce_Boot_Module__diagsMask__C            
00012a42  ti_catalog_arm_cortexm4_tiva_ce_Boot_Module__id__C                   
00010cdd  ti_catalog_arm_cortexm4_tiva_ce_Boot_init__I                         
00002dad  ti_catalog_arm_cortexm4_tiva_ce_Boot_sysCtlClockFreqSetI__I          
000097f5  ti_catalog_arm_cortexm4_tiva_ce_Boot_sysCtlClockFreqSet__E           
2000f620  ti_ndk_config_Global_HostName                                        
2000f5b8  ti_ndk_config_Global_Id2Size                                         
00013280  ti_ndk_config_Global_largest                                         
00013284  ti_ndk_config_Global_numFrameBuf                                     
20009c80  ti_ndk_config_Global_pBufMem                                         
2000d880  ti_ndk_config_Global_pHdrMem                                         
20005380  ti_ndk_config_Global_pit                                             
20005428  ti_ndk_config_Global_pitBuffer                                       
00013278  ti_ndk_config_Global_rawPageCount                                    
00013274  ti_ndk_config_Global_rawPageSize                                     
00013288  ti_ndk_config_Global_sizeFrameBuf                                    
0001327c  ti_ndk_config_Global_smallest                                        
00005a79  ti_ndk_config_Global_stackThread                                     
0001057d  ti_ndk_config_global_taskCreateHook                                  
00010bc5  ti_ndk_config_global_taskExitHook                                    
00008f29  ti_ndk_config_ip_init                                                
0000cde1  ti_ndk_config_tcp_init                                               
0000fd99  ti_ndk_config_udp_init                                               
2000f558  ti_sysbios_BIOS_Module__state__V                                     
000106ff  ti_sysbios_BIOS_RtsGateProxy_Handle__label__S                        
00010095  ti_sysbios_BIOS_RtsGateProxy_Object__delete__S                       
0000ae3d  ti_sysbios_BIOS_RtsGateProxy_enter__E                                
0000bc9d  ti_sysbios_BIOS_RtsGateProxy_leave__E                                
00011101  ti_sysbios_BIOS_RtsGateProxy_query__E                                
0000f575  ti_sysbios_BIOS_atExitFunc__I                                        
00010005  ti_sysbios_BIOS_errorRaiseHook__I                                    
00010a69  ti_sysbios_BIOS_exitFunc__I                                          
00010d61  ti_sysbios_BIOS_getCpuFreq__E                                        
00010f41  ti_sysbios_BIOS_getThreadType__E                                     
0000b92f  ti_sysbios_BIOS_nullFunc__I                                          
00010029  ti_sysbios_BIOS_registerRTSLock__I                                   
0001004d  ti_sysbios_BIOS_removeRTSLock__I                                     
000102bd  ti_sysbios_BIOS_rtsLock__I                                           
00010951  ti_sysbios_BIOS_rtsUnlock__I                                         
00010d71  ti_sysbios_BIOS_setThreadType__E                                     
00010071  ti_sysbios_BIOS_startFunc__I                                         
00010d81  ti_sysbios_BIOS_start__E                                             
2000f308  ti_sysbios_family_arm_lm4_Timer_Module_State_0_device__A             
2000f57c  ti_sysbios_family_arm_lm4_Timer_Module_State_0_handles__A            
00010969  ti_sysbios_family_arm_lm4_Timer_Module__startupDone__F               
00010969  ti_sysbios_family_arm_lm4_Timer_Module__startupDone__S               
2000f69c  ti_sysbios_family_arm_lm4_Timer_Module__state__V                     
0000c2b9  ti_sysbios_family_arm_lm4_Timer_Module_startup__E                    
2000f348  ti_sysbios_family_arm_lm4_Timer_Object__table__V                     
00013384  ti_sysbios_family_arm_lm4_Timer_enableFunc__C                        
0000dce9  ti_sysbios_family_arm_lm4_Timer_enableTimers__I                      
00008fd9  ti_sysbios_family_arm_lm4_Timer_enableTiva__I                        
00010f51  ti_sysbios_family_arm_lm4_Timer_getMaxTicks__E                       
0000d2a1  ti_sysbios_family_arm_lm4_Timer_initDevice__I                        
0000e219  ti_sysbios_family_arm_lm4_Timer_isrStub__E                           
00011075  ti_sysbios_family_arm_lm4_Timer_masterDisable__I                     
0000c2b5  ti_sysbios_family_arm_lm4_Timer_masterEnable__I                      
00013388  ti_sysbios_family_arm_lm4_Timer_numTimerDevices__C                   
00006421  ti_sysbios_family_arm_lm4_Timer_start__E                             
0001338c  ti_sysbios_family_arm_lm4_Timer_startupNeeded__C                     
0000e5c1  ti_sysbios_family_arm_lm4_Timer_startup__E                           
0000f5a9  ti_sysbios_family_arm_lm4_Timer_stop__E                              
000101d9  ti_sysbios_family_arm_lm4_Timer_write__I                             
00013390  ti_sysbios_family_arm_m3_Hwi_E_NMI__C                                
00013394  ti_sysbios_family_arm_m3_Hwi_E_alreadyDefined__C                     
00013398  ti_sysbios_family_arm_m3_Hwi_E_busFault__C                           
0001339c  ti_sysbios_family_arm_m3_Hwi_E_debugMon__C                           
000133a0  ti_sysbios_family_arm_m3_Hwi_E_hardFault__C                          
000133a4  ti_sysbios_family_arm_m3_Hwi_E_memFault__C                           
000133a8  ti_sysbios_family_arm_m3_Hwi_E_noIsr__C                              
000133ac  ti_sysbios_family_arm_m3_Hwi_E_reserved__C                           
000133b0  ti_sysbios_family_arm_m3_Hwi_E_svCall__C                             
000133b4  ti_sysbios_family_arm_m3_Hwi_E_usageFault__C                         
000106cb  ti_sysbios_family_arm_m3_Hwi_Handle__label__S                        
0000f0e9  ti_sysbios_family_arm_m3_Hwi_Instance_finalize__E                    
00009a59  ti_sysbios_family_arm_m3_Hwi_Instance_init__E                        
2000f242  ti_sysbios_family_arm_m3_Hwi_Module_State_0_excActive__A             
2000f7b8  ti_sysbios_family_arm_m3_Hwi_Module_State_0_excContext__A            
2000f7bc  ti_sysbios_family_arm_m3_Hwi_Module_State_0_excStack__A              
00012f62  ti_sysbios_family_arm_m3_Hwi_Module__id__C                           
2000f718  ti_sysbios_family_arm_m3_Hwi_Module__root__V                         
00010981  ti_sysbios_family_arm_m3_Hwi_Module__startupDone__F                  
00010981  ti_sysbios_family_arm_m3_Hwi_Module__startupDone__S                  
2000f3f4  ti_sysbios_family_arm_m3_Hwi_Module__state__V                        
0000d589  ti_sysbios_family_arm_m3_Hwi_Module_startup__E                       
000133b8  ti_sysbios_family_arm_m3_Hwi_NUM_INTERRUPTS__C                       
00013104  ti_sysbios_family_arm_m3_Hwi_Object__DESC__C                         
00012fd0  ti_sysbios_family_arm_m3_Hwi_Object__PARAMS__C                       
000133bc  ti_sysbios_family_arm_m3_Hwi_Object__count__C                        
000102dd  ti_sysbios_family_arm_m3_Hwi_Object__delete__S                       
00010bd9  ti_sysbios_family_arm_m3_Hwi_Object__get__S                          
2000f638  ti_sysbios_family_arm_m3_Hwi_Object__table__V                        
00010f5d  ti_sysbios_family_arm_m3_Hwi_Params__init__S                         
000133c0  ti_sysbios_family_arm_m3_Hwi_ccr__C                                  
0000c31d  ti_sysbios_family_arm_m3_Hwi_create                                  
0000c3e5  ti_sysbios_family_arm_m3_Hwi_delete                                  
00010f69  ti_sysbios_family_arm_m3_Hwi_disableFxn__E                           
0000dd31  ti_sysbios_family_arm_m3_Hwi_disableInterrupt__E                     
0000c381  ti_sysbios_family_arm_m3_Hwi_dispatchC__I                            
2000e378  ti_sysbios_family_arm_m3_Hwi_dispatchTable                           
00006f09  ti_sysbios_family_arm_m3_Hwi_dispatch__I                             
00011081  ti_sysbios_family_arm_m3_Hwi_doSwiRestore__I                         
000110c1  ti_sysbios_family_arm_m3_Hwi_doTaskRestore__I                        
0000dd79  ti_sysbios_family_arm_m3_Hwi_enableInterrupt__E                      
000040d9  ti_sysbios_family_arm_m3_Hwi_excBusFault__I                          
00008801  ti_sysbios_family_arm_m3_Hwi_excDebugMon__I                          
00001561  ti_sysbios_family_arm_m3_Hwi_excDumpRegs__I                          
000102fd  ti_sysbios_family_arm_m3_Hwi_excHandlerAsm__I                        
000133c4  ti_sysbios_family_arm_m3_Hwi_excHandlerFunc__C                       
00002fb1  ti_sysbios_family_arm_m3_Hwi_excHandlerMax__I                        
00010321  ti_sysbios_family_arm_m3_Hwi_excHandler__I                           
000088c1  ti_sysbios_family_arm_m3_Hwi_excHardFault__I                         
00013344  ti_sysbios_family_arm_m3_Hwi_excHookFuncs__A                         
000133c8  ti_sysbios_family_arm_m3_Hwi_excHookFuncs__C                         
00004be9  ti_sysbios_family_arm_m3_Hwi_excMemFault__I                          
0000f121  ti_sysbios_family_arm_m3_Hwi_excNmi__I                               
0000ecc1  ti_sysbios_family_arm_m3_Hwi_excNoIsr__I                             
0000ddc1  ti_sysbios_family_arm_m3_Hwi_excReserved__I                          
0000e999  ti_sysbios_family_arm_m3_Hwi_excSvCall__I                            
00004529  ti_sysbios_family_arm_m3_Hwi_excUsageFault__I                        
0000e261  ti_sysbios_family_arm_m3_Hwi_getStackInfo__E                         
00009af1  ti_sysbios_family_arm_m3_Hwi_initNVIC__E                             
0000d04d  ti_sysbios_family_arm_m3_Hwi_initStacks__E                           
000133cc  ti_sysbios_family_arm_m3_Hwi_nullIsrFunc__C                          
e000e000  ti_sysbios_family_arm_m3_Hwi_nvic                                    
0000fdbf  ti_sysbios_family_arm_m3_Hwi_pendSV__I                               
0000a5d1  ti_sysbios_family_arm_m3_Hwi_postInit__I                             
000133d0  ti_sysbios_family_arm_m3_Hwi_priGroup__C                             
20000000  ti_sysbios_family_arm_m3_Hwi_ramVectors                              
00000000  ti_sysbios_family_arm_m3_Hwi_resetVectors                            
000110c9  ti_sysbios_family_arm_m3_Hwi_restoreFxn__E                           
0000fde3  ti_sysbios_family_arm_m3_Hwi_return                                  
00011089  ti_sysbios_family_arm_m3_Hwi_startup__E                              
00010bf1  ti_sysbios_family_arm_m3_Hwi_switchFromBootStack__E                  
0000caa5  ti_sysbios_family_arm_m3_TaskSupport_Module__startupDone__S          
0000a089  ti_sysbios_family_arm_m3_TaskSupport_buildTaskStack                  
00010f79  ti_sysbios_family_arm_m3_TaskSupport_checkStack__E                   
00010f89  ti_sysbios_family_arm_m3_TaskSupport_getStackAlignment__E            
00010d91  ti_sysbios_family_arm_m3_TaskSupport_glue                            
000133d4  ti_sysbios_family_arm_m3_TaskSupport_stackAlignment__C               
0000f5d9  ti_sysbios_family_arm_m3_TaskSupport_start__E                        
00010999  ti_sysbios_family_arm_m3_TaskSupport_swap__E                         
0001049b  ti_sysbios_family_xxx_Hwi_switchAndRunFunc                           
000106e5  ti_sysbios_gates_GateHwi_Handle__label__S                            
00011111  ti_sysbios_gates_GateHwi_Instance_init__E                            
00013050  ti_sysbios_gates_GateHwi_Module__FXNS__C                             
2000f720  ti_sysbios_gates_GateHwi_Module__root__V                             
00013124  ti_sysbios_gates_GateHwi_Object__DESC__C                             
0001328c  ti_sysbios_gates_GateHwi_Object__PARAMS__C                           
0000f609  ti_sysbios_gates_GateHwi_Object__create__S                           
00010341  ti_sysbios_gates_GateHwi_Object__delete__S                           
2000f7c0  ti_sysbios_gates_GateHwi_Object__table__V                            
00010f99  ti_sysbios_gates_GateHwi_enter__E                                    
000110d1  ti_sysbios_gates_GateHwi_leave__E                                    
000110f9  ti_sysbios_gates_GateHwi_query__E                                    
000106ff  ti_sysbios_gates_GateMutex_Handle__label__S                          
000133d8  ti_sysbios_gates_GateMutex_Instance_State_sem__O                     
00010da1  ti_sysbios_gates_GateMutex_Instance_finalize__E                      
00010599  ti_sysbios_gates_GateMutex_Instance_init__E                          
00013074  ti_sysbios_gates_GateMutex_Module__FXNS__C                           
2000f728  ti_sysbios_gates_GateMutex_Module__root__V                           
00013144  ti_sysbios_gates_GateMutex_Object__DESC__C                           
000132a4  ti_sysbios_gates_GateMutex_Object__PARAMS__C                         
0000f639  ti_sysbios_gates_GateMutex_Object__create__S                         
00010095  ti_sysbios_gates_GateMutex_Object__delete__S                         
2000f388  ti_sysbios_gates_GateMutex_Object__table__V                          
0000f669  ti_sysbios_gates_GateMutex_enter__E                                  
000109b1  ti_sysbios_gates_GateMutex_leave__E                                  
00011101  ti_sysbios_gates_GateMutex_query__E                                  
000133dc  ti_sysbios_hal_Hwi_E_stackOverflow__C                                
000106cb  ti_sysbios_hal_Hwi_HwiProxy_Handle__label__S                         
00010981  ti_sysbios_hal_Hwi_HwiProxy_Module__startupDone__S                   
000102dd  ti_sysbios_hal_Hwi_HwiProxy_Object__delete__S                        
00010f5d  ti_sysbios_hal_Hwi_HwiProxy_Params__init__S                          
0000dd31  ti_sysbios_hal_Hwi_HwiProxy_disableInterrupt__E                      
00010f69  ti_sysbios_hal_Hwi_HwiProxy_disable__E                               
0000dd79  ti_sysbios_hal_Hwi_HwiProxy_enableInterrupt__E                       
0000e261  ti_sysbios_hal_Hwi_HwiProxy_getStackInfo__E                          
000110c9  ti_sysbios_hal_Hwi_HwiProxy_restore__E                               
00011089  ti_sysbios_hal_Hwi_HwiProxy_startup__E                               
00010bf1  ti_sysbios_hal_Hwi_HwiProxy_switchFromBootStack__E                   
000134b4  ti_sysbios_hal_Hwi_Module__id__C                                     
00010ca1  ti_sysbios_hal_Hwi_Module_startup__E                                 
0000f159  ti_sysbios_hal_Hwi_checkStack                                        
0000dd31  ti_sysbios_hal_Hwi_disableInterrupt__E                               
0000dd79  ti_sysbios_hal_Hwi_enableInterrupt__E                                
0000e261  ti_sysbios_hal_Hwi_getStackInfo__E                                   
0000f3b9  ti_sysbios_hal_Hwi_initStack                                         
00011089  ti_sysbios_hal_Hwi_startup__E                                        
00010bf1  ti_sysbios_hal_Hwi_switchFromBootStack__E                            
000133e0  ti_sysbios_heaps_HeapMem_E_memory__C                                 
00010719  ti_sysbios_heaps_HeapMem_Handle__label__S                            
20000380  ti_sysbios_heaps_HeapMem_Instance_State_0_buf__A                     
0000e601  ti_sysbios_heaps_HeapMem_Instance_init__E                            
000106ff  ti_sysbios_heaps_HeapMem_Module_GateProxy_Handle__label__S           
00010095  ti_sysbios_heaps_HeapMem_Module_GateProxy_Object__delete__S          
0000cb05  ti_sysbios_heaps_HeapMem_Module_GateProxy_enter__E                   
0000d2f5  ti_sysbios_heaps_HeapMem_Module_GateProxy_leave__E                   
00011101  ti_sysbios_heaps_HeapMem_Module_GateProxy_query__E                   
00013000  ti_sysbios_heaps_HeapMem_Module__FXNS__C                             
000133e4  ti_sysbios_heaps_HeapMem_Module__gateObj__C                          
000134b6  ti_sysbios_heaps_HeapMem_Module__id__C                               
2000f730  ti_sysbios_heaps_HeapMem_Module__root__V                             
00013164  ti_sysbios_heaps_HeapMem_Object__DESC__C                             
00013098  ti_sysbios_heaps_HeapMem_Object__PARAMS__C                           
000133e8  ti_sysbios_heaps_HeapMem_Object__count__C                            
0000f699  ti_sysbios_heaps_HeapMem_Object__create__S                           
00010361  ti_sysbios_heaps_HeapMem_Object__delete__S                           
00010c05  ti_sysbios_heaps_HeapMem_Object__get__S                              
2000f650  ti_sysbios_heaps_HeapMem_Object__table__V                            
00007b79  ti_sysbios_heaps_HeapMem_alloc__E                                    
0000ae41  ti_sysbios_heaps_HeapMem_free__E                                     
0000d849  ti_sysbios_heaps_HeapMem_getStats__E                                 
0000e9d9  ti_sysbios_heaps_HeapMem_init__I                                     
000110d9  ti_sysbios_heaps_HeapMem_isBlocking__E                               
000133ec  ti_sysbios_heaps_HeapMem_reqAlign__C                                 
0000d5d9  ti_sysbios_knl_Clock_Instance_init__E                                
000133f0  ti_sysbios_knl_Clock_Module_State_clockQ__O                          
2000f738  ti_sysbios_knl_Clock_Module__root__V                                 
2000f4bc  ti_sysbios_knl_Clock_Module__state__V                                
000100b9  ti_sysbios_knl_Clock_Module_startup__E                               
00013184  ti_sysbios_knl_Clock_Object__DESC__C                                 
000130bc  ti_sysbios_knl_Clock_Object__PARAMS__C                               
00010fa5  ti_sysbios_knl_Clock_Params__init__S                                 
00010969  ti_sysbios_knl_Clock_TimerProxy_Module__startupDone__S               
0000d585  ti_sysbios_knl_Clock_TimerProxy_getMaxTicks__E                       
0000e5c1  ti_sysbios_knl_Clock_TimerProxy_startup__E                           
0000fcb1  ti_sysbios_knl_Clock_addI__E                                         
0000ecf9  ti_sysbios_knl_Clock_create                                          
0000f96d  ti_sysbios_knl_Clock_doTick__I                                       
00010fb1  ti_sysbios_knl_Clock_getTicks__E                                     
00011119  ti_sysbios_knl_Clock_logTick__E                                      
0000b851  ti_sysbios_knl_Clock_workFunc__E                                     
0001334c  ti_sysbios_knl_Idle_funcList__A                                      
00013354  ti_sysbios_knl_Idle_funcList__C                                      
00010e79  ti_sysbios_knl_Idle_loop__E                                          
00010381  ti_sysbios_knl_Idle_run__E                                           
000110e1  ti_sysbios_knl_Queue_Instance_init__E                                
2000f740  ti_sysbios_knl_Queue_Module__root__V                                 
000131a4  ti_sysbios_knl_Queue_Object__DESC__C                                 
000132bc  ti_sysbios_knl_Queue_Object__PARAMS__C                               
000105b5  ti_sysbios_knl_Queue_Object__destruct__S                             
00010fbd  ti_sysbios_knl_Queue_Object__get__S                                  
0000f999  ti_sysbios_knl_Queue_construct                                       
0000d895  ti_sysbios_knl_Queue_destruct                                        
00010e89  ti_sysbios_knl_Queue_empty__E                                        
000105d1  ti_sysbios_knl_Queue_put__E                                          
000133f4  ti_sysbios_knl_Semaphore_Instance_State_pendQ__O                     
00010db1  ti_sysbios_knl_Semaphore_Instance_finalize__E                        
000100e1  ti_sysbios_knl_Semaphore_Instance_init__E                            
2000f748  ti_sysbios_knl_Semaphore_Module__root__V                             
000131c4  ti_sysbios_knl_Semaphore_Object__DESC__C                             
000130e0  ti_sysbios_knl_Semaphore_Object__PARAMS__C                           
00010105  ti_sysbios_knl_Semaphore_Object__delete__S                           
000103a1  ti_sysbios_knl_Semaphore_Object__destruct__S                         
00010fc9  ti_sysbios_knl_Semaphore_Params__init__S                             
0000f6c9  ti_sysbios_knl_Semaphore_construct                                   
0000f18d  ti_sysbios_knl_Semaphore_create                                      
0000d8e5  ti_sysbios_knl_Semaphore_delete                                      
0000dce5  ti_sysbios_knl_Semaphore_destruct                                    
0000f3f1  ti_sysbios_knl_Semaphore_pendTimeout__I                              
00005369  ti_sysbios_knl_Semaphore_pend__E                                     
0000c3e9  ti_sysbios_knl_Semaphore_post__E                                     
00010cb9  ti_sysbios_knl_Semaphore_reset__E                                    
00010733  ti_sysbios_knl_Swi_Handle__label__S                                  
00011121  ti_sysbios_knl_Swi_Instance_finalize__E                              
0000d2f9  ti_sysbios_knl_Swi_Instance_init__E                                  
2000f0f4  ti_sysbios_knl_Swi_Module_State_0_readyQ__A                          
2000f750  ti_sysbios_knl_Swi_Module__root__V                                   
2000f5d4  ti_sysbios_knl_Swi_Module__state__V                                  
0000fcd9  ti_sysbios_knl_Swi_Module_startup__E                                 
000131e4  ti_sysbios_knl_Swi_Object__DESC__C                                   
00013028  ti_sysbios_knl_Swi_Object__PARAMS__C                                 
000133f8  ti_sysbios_knl_Swi_Object__count__C                                  
000103c1  ti_sysbios_knl_Swi_Object__delete__S                                 
00010c19  ti_sysbios_knl_Swi_Object__get__S                                    
2000f48c  ti_sysbios_knl_Swi_Object__table__V                                  
0000ca49  ti_sysbios_knl_Swi_create                                            
0000e215  ti_sysbios_knl_Swi_delete                                            
00010dc1  ti_sysbios_knl_Swi_disable__E                                        
0000e2a9  ti_sysbios_knl_Swi_post__E                                           
0000bca1  ti_sysbios_knl_Swi_restoreHwi__E                                     
0000ea19  ti_sysbios_knl_Swi_restore__E                                        
0000d899  ti_sysbios_knl_Swi_runLoop__I                                        
0000caa9  ti_sysbios_knl_Swi_run__I                                            
0000cb09  ti_sysbios_knl_Swi_schedule__I                                       
000110e9  ti_sysbios_knl_Swi_startup__E                                        
000133fc  ti_sysbios_knl_Task_E_deleteNotAllowed__C                            
00013400  ti_sysbios_knl_Task_E_spOutOfBounds__C                               
00013404  ti_sysbios_knl_Task_E_stackOverflow__C                               
0001074d  ti_sysbios_knl_Task_Handle__label__S                                 
2000efa0  ti_sysbios_knl_Task_Instance_State_0_hookEnv__A                      
2000db78  ti_sysbios_knl_Task_Instance_State_0_stack__A                        
2000efa4  ti_sysbios_knl_Task_Instance_State_1_hookEnv__A                      
2000e178  ti_sysbios_knl_Task_Instance_State_1_stack__A                        
00004a99  ti_sysbios_knl_Task_Instance_finalize__E                             
00007001  ti_sysbios_knl_Task_Instance_init__E                                 
2000f7c4  ti_sysbios_knl_Task_Module_State_0_idleTask__A                       
2000f174  ti_sysbios_knl_Task_Module_State_0_readyQ__A                         
00013408  ti_sysbios_knl_Task_Module_State_inactiveQ__O                        
0001340c  ti_sysbios_knl_Task_Module_State_terminatedQ__O                      
000134b8  ti_sysbios_knl_Task_Module__id__C                                    
2000f758  ti_sysbios_knl_Task_Module__root__V                                  
2000f244  ti_sysbios_knl_Task_Module__state__V                                 
00009d39  ti_sysbios_knl_Task_Module_startup__E                                
00013204  ti_sysbios_knl_Task_Object__DESC__C                                  
00012f64  ti_sysbios_knl_Task_Object__PARAMS__C                                
00013410  ti_sysbios_knl_Task_Object__count__C                                 
000103e1  ti_sysbios_knl_Task_Object__delete__S                                
00010c2d  ti_sysbios_knl_Task_Object__first__S                                 
00010dd1  ti_sysbios_knl_Task_Object__get__S                                   
00013414  ti_sysbios_knl_Task_Object__heap__C                                  
00010c41  ti_sysbios_knl_Task_Object__next__S                                  
2000f05c  ti_sysbios_knl_Task_Object__table__V                                 
00010fd5  ti_sysbios_knl_Task_Params__init__S                                  
0000caa5  ti_sysbios_knl_Task_SupportProxy_Module__startupDone__S              
00010f79  ti_sysbios_knl_Task_SupportProxy_checkStack__E                       
00010f89  ti_sysbios_knl_Task_SupportProxy_getStackAlignment__E                
0000f5d9  ti_sysbios_knl_Task_SupportProxy_start__E                            
00010999  ti_sysbios_knl_Task_SupportProxy_swap__E                             
00013418  ti_sysbios_knl_Task_allBlockedFunc__C                                
0000d8e9  ti_sysbios_knl_Task_allBlockedFunction__I                            
00008d19  ti_sysbios_knl_Task_checkStacks__E                                   
0000cb65  ti_sysbios_knl_Task_create                                           
0001341c  ti_sysbios_knl_Task_defaultStackHeap__C                              
00013420  ti_sysbios_knl_Task_defaultStackSize__C                              
0000e25d  ti_sysbios_knl_Task_delete                                           
0000de09  ti_sysbios_knl_Task_deleteTerminatedTasksFunc__I                     
00010de1  ti_sysbios_knl_Task_disable__E                                       
000105f1  ti_sysbios_knl_Task_enter__I                                         
00008ba9  ti_sysbios_knl_Task_exit__E                                          
00011091  ti_sysbios_knl_Task_getHookContext__E                                
00010fe1  ti_sysbios_knl_Task_getIdleTask__E                                   
000132d4  ti_sysbios_knl_Task_hooks__A                                         
0001335c  ti_sysbios_knl_Task_hooks__C                                         
00013424  ti_sysbios_knl_Task_numConstructedTasks__C                           
000072d9  ti_sysbios_knl_Task_postInit__I                                      
0000ed31  ti_sysbios_knl_Task_processVitalTaskFlag__I                          
00010129  ti_sysbios_knl_Task_restoreHwi__E                                    
0000f9c9  ti_sysbios_knl_Task_restore__E                                       
00009891  ti_sysbios_knl_Task_schedule__I                                      
00010ff1  ti_sysbios_knl_Task_self__E                                          
00011099  ti_sysbios_knl_Task_setHookContext__E                                
00009131  ti_sysbios_knl_Task_setPri__E                                        
00010769  ti_sysbios_knl_Task_sleepTimeout__I                                  
000082b1  ti_sysbios_knl_Task_sleep__E                                         
00009dc9  ti_sysbios_knl_Task_startCore__E                                     
00011109  ti_sysbios_knl_Task_startup__E                                       
000109a5  ti_sysbios_knl_Task_swapReturn                                       
0000cbc1  ti_sysbios_knl_Task_unblockI__E                                      
2000ef28  tpseudo                                                              
2000ee38  udps                                                                 
2000ef34  upseudo                                                              
2000edec  vlan_mcb                                                             
00013428  xdc_runtime_Assert_E_assertFailed__C                                 
0000d34d  xdc_runtime_Assert_raise__I                                          
0001342c  xdc_runtime_Core_A_initializedParams__C                              
00013430  xdc_runtime_Core_Module__diagsEnabled__C                             
00013434  xdc_runtime_Core_Module__diagsIncluded__C                            
00013438  xdc_runtime_Core_Module__diagsMask__C                                
000134ba  xdc_runtime_Core_Module__id__C                                       
0000f1c1  xdc_runtime_Core_assignLabel__I                                      
0000df69  xdc_runtime_Core_assignParams__I                                     
00008051  xdc_runtime_Core_constructObject__I                                  
00006931  xdc_runtime_Core_createObject__I                                     
0000c059  xdc_runtime_Core_deleteObject__I                                     
0001343c  xdc_runtime_Error_E_memory__C                                        
00013440  xdc_runtime_Error_Module__diagsEnabled__C                            
00013444  xdc_runtime_Error_Module__diagsIncluded__C                           
00013448  xdc_runtime_Error_Module__diagsMask__C                               
000134bc  xdc_runtime_Error_Module__loggerDefined__C                           
0001344c  xdc_runtime_Error_Module__loggerFxn8__C                              
00013450  xdc_runtime_Error_Module__loggerObj__C                               
2000f45a  xdc_runtime_Error_Module__state__V                                   
000109c9  xdc_runtime_Error_check__E                                           
0000e2a5  xdc_runtime_Error_getMsg__E                                          
0000e995  xdc_runtime_Error_getSite__E                                         
00010ffd  xdc_runtime_Error_init__E                                            
000134be  xdc_runtime_Error_maxDepth__C                                        
00005cb5  xdc_runtime_Error_policyDefault__E                                   
00013454  xdc_runtime_Error_policyFxn__C                                       
00012a41  xdc_runtime_Error_policy__C                                          
0000bd0d  xdc_runtime_Error_print__E                                           
00013458  xdc_runtime_Error_raiseHook__C                                       
0001060d  xdc_runtime_Error_raiseX__E                                          
0000e2ed  xdc_runtime_Error_setX__E                                            
00011009  xdc_runtime_Gate_enterSystem__E                                      
00010df1  xdc_runtime_Gate_leaveSystem__E                                      
0001345c  xdc_runtime_IGateProvider_Interface__BASE__C                         
00013460  xdc_runtime_IHeap_Interface__BASE__C                                 
00013464  xdc_runtime_IModule_Interface__BASE__C                               
00013468  xdc_runtime_Log_L_error__C                                           
000106e5  xdc_runtime_Main_Module_GateProxy_Handle__label__S                   
00010341  xdc_runtime_Main_Module_GateProxy_Object__delete__S                  
000110f9  xdc_runtime_Main_Module_GateProxy_query__E                           
00010719  xdc_runtime_Memory_HeapProxy_Handle__label__S                        
00010361  xdc_runtime_Memory_HeapProxy_Object__delete__S                       
00011041  xdc_runtime_Memory_HeapProxy_alloc__E                                
0001104b  xdc_runtime_Memory_HeapProxy_free__E                                 
000134c0  xdc_runtime_Memory_Module__id__C                                     
2000f7c8  xdc_runtime_Memory_Module__state__V                                  
0000bd79  xdc_runtime_Memory_alloc__E                                          
00011015  xdc_runtime_Memory_calloc__E                                         
0001346c  xdc_runtime_Memory_defaultHeapInstance__C                            
00010e01  xdc_runtime_Memory_free__E                                           
00011021  xdc_runtime_Memory_getMaxDefaultTypeAlign__E                         
00010629  xdc_runtime_Memory_valloc__E                                         
2000f760  xdc_runtime_Registry_Module__state__V                                
00010401  xdc_runtime_Registry_findById__E                                     
2000f768  xdc_runtime_Startup_Module__state__V                                 
00000001  xdc_runtime_Startup__EXECFXN__C                                      
00000001  xdc_runtime_Startup__RESETFXN__C                                     
00013470  xdc_runtime_Startup_execImpl__C                                      
0000d629  xdc_runtime_Startup_exec__E                                          
00010ccb  xdc_runtime_Startup_exec__I                                          
00013300  xdc_runtime_Startup_firstFxns__A                                     
00013364  xdc_runtime_Startup_firstFxns__C                                     
0001336c  xdc_runtime_Startup_lastFxns__C                                      
00013474  xdc_runtime_Startup_maxPasses__C                                     
0000ba7b  xdc_runtime_Startup_reset__I                                         
00013324  xdc_runtime_Startup_sfxnRts__A                                       
00013478  xdc_runtime_Startup_sfxnRts__C                                       
00013224  xdc_runtime_Startup_sfxnTab__A                                       
0001347c  xdc_runtime_Startup_sfxnTab__C                                       
00006c25  xdc_runtime_Startup_startMods__I                                     
2000ec14  xdc_runtime_SysMin_Module_State_0_outbuf__A                          
2000f6a8  xdc_runtime_SysMin_Module__state__V                                  
00010421  xdc_runtime_SysMin_Module_startup__E                                 
0000f6f9  xdc_runtime_SysMin_abort__E                                          
00013480  xdc_runtime_SysMin_bufSize__C                                        
00010645  xdc_runtime_SysMin_exit__E                                           
000134c2  xdc_runtime_SysMin_flushAtExit__C                                    
0000e331  xdc_runtime_SysMin_flush__E                                          
00013484  xdc_runtime_SysMin_outputFunc__C                                     
000101fb  xdc_runtime_SysMin_output__I                                         
0000ed69  xdc_runtime_SysMin_putch__E                                          
00010e11  xdc_runtime_SysMin_ready__E                                          
000106e5  xdc_runtime_System_Module_GateProxy_Handle__label__S                 
00010341  xdc_runtime_System_Module_GateProxy_Object__delete__S                
0000e9d5  xdc_runtime_System_Module_GateProxy_enter__E                         
0000ea15  xdc_runtime_System_Module_GateProxy_leave__E                         
000110f9  xdc_runtime_System_Module_GateProxy_query__E                         
2000f770  xdc_runtime_System_Module_State_0_atexitHandlers__A                  
00013488  xdc_runtime_System_Module__gateObj__C                                
2000f778  xdc_runtime_System_Module__state__V                                  
000110ef  xdc_runtime_System_Module_startup__E                                 
0000f6f9  xdc_runtime_System_SupportProxy_abort__E                             
00010645  xdc_runtime_System_SupportProxy_exit__E                              
0000e331  xdc_runtime_System_SupportProxy_flush__E                             
0000ed69  xdc_runtime_System_SupportProxy_putch__E                             
00010e11  xdc_runtime_System_SupportProxy_ready__E                             
0001348c  xdc_runtime_System_abortFxn__C                                       
00009a55  xdc_runtime_System_abortStd__E                                       
00010661  xdc_runtime_System_abort__E                                          
00010783  xdc_runtime_System_aprintf__E                                        
0000f11d  xdc_runtime_System_aprintf_va__F                                     
0000eda1  xdc_runtime_System_atexit__E                                         
0000fde5  xdc_runtime_System_avprintf__E                                       
0000211d  xdc_runtime_System_doPrint__I                                        
00013490  xdc_runtime_System_exitFxn__C                                        
00009a55  xdc_runtime_System_exitStd__E                                        
000109e1  xdc_runtime_System_exit__E                                           
00013494  xdc_runtime_System_extendFxn__C                                      
0000e331  xdc_runtime_System_flush__E                                          
0000ba7d  xdc_runtime_System_formatNum__I                                      
00013498  xdc_runtime_System_maxAtexitHandlers__C                              
00006d1d  xdc_runtime_System_printfExtend__I                                   
0001079d  xdc_runtime_System_printf__E                                         
0000f155  xdc_runtime_System_printf_va__F                                      
0000f729  xdc_runtime_System_processAtExit__E                                  
0000fac9  xdc_runtime_System_putchar__I                                        
0001014d  xdc_runtime_System_vprintf__E                                        
00010e21  xdc_runtime_System_vsnprintf__E                                      
00010aab  xdc_runtime_System_vsprintf__E                                       
000134c4  xdc_runtime_Text_charCnt__C                                          
00011124  xdc_runtime_Text_charTab__A                                          
0001349c  xdc_runtime_Text_charTab__C                                          
0000f9f5  xdc_runtime_Text_cordText__E                                         
000134c6  xdc_runtime_Text_isLoaded__C                                         
000134a0  xdc_runtime_Text_nameEmpty__C                                        
000134a4  xdc_runtime_Text_nameStatic__C                                       
000134a8  xdc_runtime_Text_nameUnknown__C                                      
00012c64  xdc_runtime_Text_nodeTab__A                                          
000134ac  xdc_runtime_Text_nodeTab__C                                          
0000f1f5  xdc_runtime_Text_printVisFxn__I                                      
0000cc1d  xdc_runtime_Text_putLab__E                                           
00009315  xdc_runtime_Text_putMod__E                                           
00009629  xdc_runtime_Text_putSite__E                                          
000134c8  xdc_runtime_Text_registryModsLastId__C                               
000109f9  xdc_runtime_Text_ropeText__E                                         
000134ca  xdc_runtime_Text_unnamedModsLastId__C                                
0000d679  xdc_runtime_Text_visitRope2__I                                       
000134b0  xdc_runtime_Text_visitRopeFxn__C                                     
00010e31  xdc_runtime_Text_visitRope__I                                        
0000e375  xdc_runtime_Text_xprintf__I                                          


GLOBAL SYMBOLS: SORTED BY Symbol Address 

address   name                                                                 
-------   ----                                                                 
00000000  __ASM__                                                              
00000000  ti_sysbios_family_arm_m3_Hwi_resetVectors                            
00000001  xdc_runtime_Startup__EXECFXN__C                                      
00000001  xdc_runtime_Startup__RESETFXN__C                                     
00000041  TcpInput                                                             
00000060  __ISA__                                                              
00000073  __PLAT__                                                             
00000094  __TARG__                                                             
000000ba  __TRDR__                                                             
00000800  __STACK_SIZE                                                         
00000ca9  TcpOutput                                                            
00001561  ti_sysbios_family_arm_m3_Hwi_excDumpRegs__I                          
00001991  IPTxPacket                                                           
00001d99  IPRxPacket                                                           
0000211d  xdc_runtime_System_doPrint__I                                        
00002469  SockSet                                                              
000026ed  IPReasm                                                              
00002939  ICMPInput                                                            
00002b75  UdpInput                                                             
00002dad  ti_catalog_arm_cortexm4_tiva_ce_Boot_sysCtlClockFreqSetI__I          
00002fb1  ti_sysbios_family_arm_m3_Hwi_excHandlerMax__I                        
000031ad  SockRecv                                                             
000033a1  tcpHandler                                                           
00003589  EMACSnow_NIMUInit                                                    
00003741  LLITxIpPacket                                                        
000038f1  LLIRxPacket                                                          
00003a9d  mmAlloc                                                              
00003c39  IGMPInput                                                            
00003dd1  SockNew                                                              
00003f61  NC_NetStart                                                          
000040d5  BindGetIF                                                            
000040d9  ti_sysbios_family_arm_m3_Hwi_excBusFault__I                          
0000424d  RTCReport                                                            
000043bd  SBRead                                                               
00004527  LED_TOGGLE                                                           
00004529  ti_sysbios_family_arm_m3_Hwi_excUsageFault__I                        
0000468d  SockConnect                                                          
000047ed  DHCPOpen                                                             
00004945  GPIO_setConfig                                                       
00004a95  BindGetNext                                                          
00004a99  ti_sysbios_knl_Task_Instance_finalize__E                             
00004be9  ti_sysbios_family_arm_m3_Hwi_excMemFault__I                          
00004d31  BindNew                                                              
00004e75  TcpTimeoutCheck                                                      
00004fb5  CfgAddEntry                                                          
000050f1  SockNotify                                                           
0000522d  SockSend                                                             
00005369  ti_sysbios_knl_Semaphore_pend__E                                     
000054a1  ICMPGenPacket                                                        
000055d5  GPIOPadConfigSet                                                     
00005705  EK_TM4C1294XL_initEMAC                                               
00005831  SockPcbResolve                                                       
00005955  UdpOutput                                                            
00005a79  ti_ndk_config_Global_stackThread                                     
00005b9d  TcpGenPacket                                                         
00005cb5  xdc_runtime_Error_policyDefault__E                                   
00005dcd  NIMUIoctl                                                            
00005ee1  NodeTreeFree                                                         
00005ff1  RawInput                                                             
00006101  RtFind                                                               
0000620d  RtCreate                                                             
00006317  NatMsg                                                               
00006319  EMACSnow_emacStart                                                   
00006421  ti_sysbios_family_arm_lm4_Timer_start__E                             
00006529  llEnter                                                              
0000662d  dhcpPacketProcess                                                    
0000672f  inet_aton                                                            
00006931  xdc_runtime_Core_createObject__I                                     
00006b2d  PipeRecv                                                             
00006c25  xdc_runtime_Startup_startMods__I                                     
00006d1d  xdc_runtime_System_printfExtend__I                                   
00006e15  TaskGetEnv                                                           
00006f09  ti_sysbios_family_arm_m3_Hwi_dispatch__I                             
00006ffd  NDK_vsprintf                                                         
00007001  ti_sysbios_knl_Task_Instance_init__E                                 
000070f5  LLIGenArpPacket                                                      
000071e5  SockClose                                                            
000072d5  NodeSetRt                                                            
000072d9  ti_sysbios_knl_Task_postInit__I                                      
000073c5  TaskSetEnv                                                           
000074ad  TcpTimeoutRexmt                                                      
0000758d  SBWrite                                                              
00007669  dhcpSocketOpen                                                       
00007745  dhcpState                                                            
00007821  NodeAdd                                                              
000078f9  TcpPrSetOption                                                       
00007aa5  SockPcbBind                                                          
00007b79  ti_sysbios_heaps_HeapMem_alloc__E                                    
00007c4d  NIMUReceivePacket                                                    
00007d1f  _TaskInit                                                            
00007d21  ICMPSendRtAdv                                                        
00007f85  dhcpVerifyMessage                                                    
00008051  xdc_runtime_Core_constructObject__I                                  
0000811d  RawEthSockNew                                                        
000082ad  RawEthSockPrAttach                                                   
000082b1  TaskSleep                                                            
000082b1  ti_sysbios_knl_Task_sleep__E                                         
00008379  EMACSnow_InitDMADescriptors                                          
000085c5  tcpWorker                                                            
00008741  VLANDeinit                                                           
000087fd  RawEthSockPrDetach                                                   
00008801  ti_sysbios_family_arm_m3_Hwi_excDebugMon__I                          
000088bd  SemPend                                                              
000088c1  ti_sysbios_family_arm_m3_Hwi_excHardFault__I                         
0000897d  EK_TM4C1294XL_initGeneral                                            
00008aed  _LLITimeoutCheck                                                     
00008ba5  SemPost                                                              
00008ba9  TaskExit                                                             
00008ba9  ti_sysbios_knl_Task_exit__E                                          
00008c61  TcpTimeoutKeep                                                       
00008d15  SemReset                                                             
00008d19  ti_sysbios_knl_Task_checkStacks__E                                   
00008dcd  RawEthSockSet                                                        
00008f29  ti_ndk_config_ip_init                                                
00008fd5  TaskSelf                                                             
00008fd9  ti_sysbios_family_arm_lm4_Timer_enableTiva__I                        
00009085  SockCreatePacket                                                     
0000912d  TaskSetPri                                                           
00009131  ti_sysbios_knl_Task_setPri__E                                        
000091d5  IPGetRoute                                                           
00009275  __TI_auto_init                                                       
00009315  xdc_runtime_Text_putMod__E                                           
000093b5  NIMUAddEthernetHeader                                                
00009453  dhcpBuildRequest                                                     
000094f1  ExecOpen                                                             
0000958d  __aeabi_memcpy                                                       
0000958d  __aeabi_memcpy4                                                      
0000958d  __aeabi_memcpy8                                                      
0000958d  memcpy                                                               
00009629  xdc_runtime_Text_putSite__E                                          
000096c3  _TaskShutdown                                                        
000096c5  NC_SystemOpen                                                        
000097f5  ti_catalog_arm_cortexm4_tiva_ce_Boot_sysCtlClockFreqSet__E           
0000988d  _llSerialInit                                                        
00009891  ti_sysbios_knl_Task_schedule__I                                      
00009929  main                                                                 
000099bf  _llSerialServiceCheck                                                
000099c1  CfgRemoveEntry                                                       
00009a55  C$$EXIT                                                              
00009a55  abort                                                                
00009a55  xdc_runtime_System_abortStd__E                                       
00009a55  xdc_runtime_System_exitStd__E                                        
00009a59  ti_sysbios_family_arm_m3_Hwi_Instance_init__E                        
00009aed  list_get_head                                                        
00009af1  ti_sysbios_family_arm_m3_Hwi_initNVIC__E                             
00009b85  CfgExecute                                                           
00009c15  IGMPMsg                                                              
00009ca5  mmBulkAlloc                                                          
00009d35  list_get_next                                                        
00009d39  ti_sysbios_knl_Task_Module_startup__E                                
00009dc9  ti_sysbios_knl_Task_startCore__E                                     
00009e59  GPIO_init                                                            
00009ee5  IPMsg                                                                
00009f71  _mmInit                                                              
0000a089  ti_sysbios_family_arm_m3_TaskSupport_buildTaskStack                  
0000a19f  _llSerialShutdown                                                    
0000a229  SockPcbCtlError                                                      
0000a337  _llUserLedInit                                                       
0000a339  CfgGetEntry                                                          
0000a3bd  EMACSnow_processPhyInterrupt                                         
0000a441  TcpPrAttach                                                          
0000a4c5  mmBulkFree                                                           
0000a549  mmFree                                                               
0000a5d1  ti_sysbios_family_arm_m3_Hwi_postInit__I                             
0000a6d7  _llUserLedShutdown                                                   
0000a6d9  EMACSnow_emacStop                                                    
0000a7d9  LLINew                                                               
0000a859  NS_BootTask                                                          
0000a8d9  PBM_alloc                                                            
0000a959  RawOutput                                                            
0000aa59  fdClose                                                              
0000aad7  _nop                                                                 
0000aad9  CfgGetNextEntry                                                      
0000ab55  EMACSnow_hwiIntFxn                                                   
0000ac4d  IGMPJoin                                                             
0000acc9  NDK_setsockopt                                                       
0000ad45  NIMURegister                                                         
0000adc1  PBM_free                                                             
0000ae3d  ti_sysbios_BIOS_RtsGateProxy_enter__E                                
0000ae41  ti_sysbios_heaps_HeapMem_free__E                                     
0000aebd  SockAccept                                                           
0000af37  __aeabi_memclr                                                       
0000af37  __aeabi_memclr4                                                      
0000af37  __aeabi_memclr8                                                      
0000af39  __aeabi_memset                                                       
0000af39  __aeabi_memset4                                                      
0000af39  __aeabi_memset8                                                      
0000af3f  memset                                                               
0000afb1  EMACInit                                                             
0000b029  NDK_sendto                                                           
0000b0a1  TcpXmitTimer                                                         
0000b119  fdOpenSession                                                        
0000b191  llExit                                                               
0000b209  PipeSend                                                             
0000b27f  llSerialService                                                      
0000b281  TcpTimeoutSackRexmt                                                  
0000b2f7  __aeabi_idiv0                                                        
0000b2f7  __aeabi_ldiv0                                                        
0000b2f9  IGMPLeaveHostGroup                                                   
0000b36d  NIMUShutdown                                                         
0000b3e1  RawEthRxPacket                                                       
0000b455  SockPcbConnect                                                       
0000b4c9  netOpenHook                                                          
0000b53d  SemCreateBinary                                                      
0000b5af  NDK_accept                                                           
0000b61f  NDK_send                                                             
0000b771  SockShutdown                                                         
0000b7e1  dhcpDecodeType                                                       
0000b851  ti_sysbios_knl_Clock_workFunc__E                                     
0000b8c1  NDK_recv                                                             
0000b92f  ti_sysbios_BIOS_nullFunc__I                                          
0000b931  RtWalkNext                                                           
0000ba7b  xdc_runtime_Startup_reset__I                                         
0000ba7d  xdc_runtime_System_formatNum__I                                      
0000baed  DbgPrintf                                                            
0000bb59  NodeTreeNew                                                          
0000bbc5  RawEthTxPacket                                                       
0000bc31  UdpChecksum                                                          
0000bc9d  ti_sysbios_BIOS_RtsGateProxy_leave__E                                
0000bca1  ti_sysbios_knl_Swi_restoreHwi__E                                     
0000bd0d  xdc_runtime_Error_print__E                                           
0000bd79  xdc_runtime_Memory_alloc__E                                          
0000bde5  TcpPrInherit                                                         
0000be4f  NDK_socket                                                           
0000beb9  PBM_open                                                             
0000bf21  SockListen                                                           
0000bf89  _RtNodeInsert                                                        
0000bff1  __TI_decompress_lzss                                                 
0000c059  xdc_runtime_Core_deleteObject__I                                     
0000c0c1  CfgFree                                                              
0000c125  GPIO_hwiIntFxn                                                       
0000c189  PBMQ_enq                                                             
0000c1ed  SockSpawnAbort                                                       
0000c251  llTimerTick                                                          
0000c2b5  ti_sysbios_family_arm_lm4_Timer_masterEnable__I                      
0000c2b9  ti_sysbios_family_arm_lm4_Timer_Module_startup__E                    
0000c31d  ti_sysbios_family_arm_m3_Hwi_create                                  
0000c381  ti_sysbios_family_arm_m3_Hwi_dispatchC__I                            
0000c3e5  ti_sysbios_family_arm_m3_Hwi_delete                                  
0000c3e9  ti_sysbios_knl_Semaphore_post__E                                     
0000c515  SBNew                                                                
0000c579  CfgGetEntryCnt                                                       
0000c5d9  FdWaitEvent                                                          
0000c639  NIMUUnregister                                                       
0000c699  NodeFind                                                             
0000c6f9  RTCMsg                                                               
0000c759  TcpChecksum                                                          
0000c7b9  dhcpBuildOptions                                                     
0000c819  RtRemove                                                             
0000c8d5  VLANReceivePacket                                                    
0000c935  CfgSetExecuteOrder                                                   
0000ca49  ti_sysbios_knl_Swi_create                                            
0000caa5  ti_sysbios_family_arm_m3_TaskSupport_Module__startupDone__S          
0000caa5  ti_sysbios_knl_Task_SupportProxy_Module__startupDone__S              
0000caa9  ti_sysbios_knl_Swi_run__I                                            
0000cb05  ti_sysbios_heaps_HeapMem_Module_GateProxy_enter__E                   
0000cb09  ti_sysbios_knl_Swi_schedule__I                                       
0000cb65  ti_sysbios_knl_Task_create                                           
0000cbc1  ti_sysbios_knl_Task_unblockI__E                                      
0000cc1d  xdc_runtime_Text_putLab__E                                           
0000cc79  RtRedirect                                                           
0000ccd3  TcpValidateMetrics                                                   
0000cd2d  dhcpBuildDecline                                                     
0000cd87  mmCopy                                                               
0000cde1  ti_ndk_config_tcp_init                                               
0000ce3d  BindFree                                                             
0000ce95  _c_int00                                                             
0000ceed  EMACPHYConfigSet                                                     
0000cf45  HOSTwrite                                                            
0000cff5  SemCreate                                                            
0000d04d  ti_sysbios_family_arm_m3_Hwi_initStacks__E                           
0000d0a5  GPIOIntTypeSet                                                       
0000d0fd  CfgEntryDeRef                                                        
0000d151  IGMPLeave                                                            
0000d1a5  RawEthSockPcbAttach                                                  
0000d1f9  SockCleanPcb                                                         
0000d24d  TcpTimeoutPersist                                                    
0000d2a1  ti_sysbios_family_arm_lm4_Timer_initDevice__I                        
0000d2f5  ti_sysbios_heaps_HeapMem_Module_GateProxy_leave__E                   
0000d2f9  ti_sysbios_knl_Swi_Instance_init__E                                  
0000d34d  xdc_runtime_Assert_raise__I                                          
0000d3a1  TcpPrDetach                                                          
0000d3f5  GPIO_setCallback                                                     
0000d445  NDK_bind                                                             
0000d4e5  SysCtlPeripheralReset                                                
0000d585  ti_sysbios_knl_Clock_TimerProxy_getMaxTicks__E                       
0000d589  ti_sysbios_family_arm_m3_Hwi_Module_startup__E                       
0000d5d9  ti_sysbios_knl_Clock_Instance_init__E                                
0000d629  xdc_runtime_Startup_exec__E                                          
0000d679  xdc_runtime_Text_visitRope2__I                                       
0000d6c9  NodeDeRef                                                            
0000d765  NtAddNetwork                                                         
0000d7b1  SockValidateRoute                                                    
0000d7fd  copy_in                                                              
0000d849  ti_sysbios_heaps_HeapMem_getStats__E                                 
0000d895  ti_sysbios_knl_Queue_destruct                                        
0000d899  ti_sysbios_knl_Swi_runLoop__I                                        
0000d8e5  ti_sysbios_knl_Semaphore_delete                                      
0000d8e9  ti_sysbios_knl_Task_allBlockedFunction__I                            
0000d97f  SockDisconnect                                                       
0000d9c9  TimerNew                                                             
0000da13  CfgNew                                                               
0000da5d  GPIOPinConfigure                                                     
0000daa5  LLIMsg                                                               
0000daed  NodeWalk                                                             
0000db35  RawEthSockPcbDetach                                                  
0000db7d  SockPcbResolveChain                                                  
0000dbc5  TcpDrop                                                              
0000dc0d  _LLIExpListInsert                                                    
0000dc55  _RtExpListInsert                                                     
0000dc9d  fdint_lockfd                                                         
0000dce5  ti_sysbios_knl_Semaphore_destruct                                    
0000dce9  ti_sysbios_family_arm_lm4_Timer_enableTimers__I                      
0000dd31  ti_sysbios_family_arm_m3_Hwi_disableInterrupt__E                     
0000dd31  ti_sysbios_hal_Hwi_HwiProxy_disableInterrupt__E                      
0000dd31  ti_sysbios_hal_Hwi_disableInterrupt__E                               
0000dd79  ti_sysbios_family_arm_m3_Hwi_enableInterrupt__E                      
0000dd79  ti_sysbios_hal_Hwi_HwiProxy_enableInterrupt__E                       
0000dd79  ti_sysbios_hal_Hwi_enableInterrupt__E                                
0000ddc1  ti_sysbios_family_arm_m3_Hwi_excReserved__I                          
0000de09  ti_sysbios_knl_Task_deleteTerminatedTasksFunc__I                     
0000de51  NtIfIdx2Ip                                                           
0000de97  RawEthSockSend                                                       
0000dedd  TcpPrCtlError                                                        
0000df23  mmZeroInit                                                           
0000df69  xdc_runtime_Core_assignParams__I                                     
0000dff5  ICMPChecksum                                                         
0000e039  IPReasmFree                                                          
0000e07d  LLIGetValidTime                                                      
0000e0c1  RouteMsg                                                             
0000e105  RtWalkEnd                                                            
0000e149  SockPcbDetach                                                        
0000e1d1  llTimerGetTime                                                       
0000e215  ti_sysbios_knl_Swi_delete                                            
0000e219  ti_sysbios_family_arm_lm4_Timer_isrStub__E                           
0000e25d  ti_sysbios_knl_Task_delete                                           
0000e261  ti_sysbios_family_arm_m3_Hwi_getStackInfo__E                         
0000e261  ti_sysbios_hal_Hwi_HwiProxy_getStackInfo__E                          
0000e261  ti_sysbios_hal_Hwi_getStackInfo__E                                   
0000e2a5  xdc_runtime_Error_getMsg__E                                          
0000e2a9  ti_sysbios_knl_Swi_post__E                                           
0000e2ed  xdc_runtime_Error_setX__E                                            
0000e331  xdc_runtime_SysMin_flush__E                                          
0000e331  xdc_runtime_System_SupportProxy_flush__E                             
0000e331  xdc_runtime_System_flush__E                                          
0000e375  xdc_runtime_Text_xprintf__I                                          
0000e3b9  NDK_listen                                                           
0000e3fb  TcpPrSendOOB                                                         
0000e43d  fdCloseSession                                                       
0000e481  LLIValidateRoute                                                     
0000e4c1  PBM_copy                                                             
0000e501  SockPcbRtChange                                                      
0000e541  TcpPrSend                                                            
0000e581  __aeabi_uidiv                                                        
0000e581  __aeabi_uidivmod                                                     
0000e5c1  ti_sysbios_family_arm_lm4_Timer_startup__E                           
0000e5c1  ti_sysbios_knl_Clock_TimerProxy_startup__E                           
0000e601  ti_sysbios_heaps_HeapMem_Instance_init__E                            
0000e641  DHCPClose                                                            
0000e6bf  TaskCreate                                                           
0000e6fd  TcpPrDisconnect                                                      
0000e73b  fdint_unlockfd                                                       
0000e779  CfgEntryGetData                                                      
0000e7b5  EMACIntDisable                                                       
0000e82d  RtWalkBegin                                                          
0000e869  TcpPrConnect                                                         
0000e8a5  TcpSetPersist                                                        
0000e91d  _RtNodeRemove                                                        
0000e959  _llTimerInit                                                         
0000e995  xdc_runtime_Error_getSite__E                                         
0000e999  ti_sysbios_family_arm_m3_Hwi_excSvCall__I                            
0000e9d5  xdc_runtime_System_Module_GateProxy_enter__E                         
0000e9d9  ti_sysbios_heaps_HeapMem_init__I                                     
0000ea15  xdc_runtime_System_Module_GateProxy_leave__E                         
0000ea19  ti_sysbios_knl_Swi_restore__E                                        
0000ea55  EMACIntEnable                                                        
0000ea91  EMACConfigGet                                                        
0000eac9  IPReasmTimeout                                                       
0000eb01  NodeGetRt                                                            
0000eb39  SysCtlPeripheralReady                                                
0000eb71  TcpClose                                                             
0000eba9  TimerHSTick                                                          
0000ebe1  __TI_writemsg                                                        
0000ec0f  C$$IO$$                                                              
0000ec19  dhcpBuildDiscover                                                    
0000ec51  dhcpOptionsClear                                                     
0000ec89  fdint_waitevent                                                      
0000ecc1  ti_sysbios_family_arm_m3_Hwi_excNoIsr__I                             
0000ecf9  ti_sysbios_knl_Clock_create                                          
0000ed31  ti_sysbios_knl_Task_processVitalTaskFlag__I                          
0000ed69  xdc_runtime_SysMin_putch__E                                          
0000ed69  xdc_runtime_System_SupportProxy_putch__E                             
0000eda1  xdc_runtime_System_atexit__E                                         
0000edd9  IPChecksum                                                           
0000ee11  CfgSetService                                                        
0000ee45  EMACConfigSet                                                        
0000ee79  EMACIntClear                                                         
0000eead  EMACSnow_emacPoll                                                    
0000eee1  EMACSnow_isLinkUp                                                    
0000ef15  EMAC_init                                                            
0000ef49  ExecClose                                                            
0000ef7d  NIMUFindByName                                                       
0000efb1  NIMUInit                                                             
0000efe5  RawEthSockNotify                                                     
0000f019  SockPrCtlError                                                       
0000f04d  SysCtlPeripheralEnable                                               
0000f081  __TI_readmsg                                                         
0000f0e9  ti_sysbios_family_arm_m3_Hwi_Instance_finalize__E                    
0000f11d  xdc_runtime_System_aprintf_va__F                                     
0000f121  ti_sysbios_family_arm_m3_Hwi_excNmi__I                               
0000f155  xdc_runtime_System_printf_va__F                                      
0000f159  ti_sysbios_hal_Hwi_checkStack                                        
0000f18d  ti_sysbios_knl_Semaphore_create                                      
0000f1c1  xdc_runtime_Core_assignLabel__I                                      
0000f1f5  xdc_runtime_Text_printVisFxn__I                                      
0000f229  CfgGetImmediate                                                      
0000f25b  RtDeRef                                                              
0000f28d  RtSetFailure                                                         
0000f2bf  SBFlush                                                              
0000f2f1  SBSetMax                                                             
0000f323  SockIntAbort                                                         
0000f3b9  ti_sysbios_hal_Hwi_initStack                                         
0000f3eb  EMACRxDMADescriptorListSet                                           
0000f3f1  ti_sysbios_knl_Semaphore_pendTimeout__I                              
0000f423  EMACAddrSet                                                          
0000f485  NS_PreBoot                                                           
0000f4b5  SockBind                                                             
0000f4e5  SockGetName                                                          
0000f515  dhcpPacketSend                                                       
0000f545  list_remove_node                                                     
0000f575  ti_sysbios_BIOS_atExitFunc__I                                        
0000f5a9  ti_sysbios_family_arm_lm4_Timer_stop__E                              
0000f5d9  ti_sysbios_family_arm_m3_TaskSupport_start__E                        
0000f5d9  ti_sysbios_knl_Task_SupportProxy_start__E                            
0000f609  ti_sysbios_gates_GateHwi_Object__create__S                           
0000f639  ti_sysbios_gates_GateMutex_Object__create__S                         
0000f669  ti_sysbios_gates_GateMutex_enter__E                                  
0000f699  ti_sysbios_heaps_HeapMem_Object__create__S                           
0000f6c9  ti_sysbios_knl_Semaphore_construct                                   
0000f6f9  xdc_runtime_SysMin_abort__E                                          
0000f6f9  xdc_runtime_System_SupportProxy_abort__E                             
0000f729  xdc_runtime_System_processAtExit__E                                  
0000f759  SBFree                                                               
0000f787  EMACIntStatus                                                        
0000f7b3  FdSignalEvent                                                        
0000f7e1  IGMPTestGroup                                                        
0000f80d  NDK_hookCreate                                                       
0000f865  NIMUPacketServiceCheck                                               
0000f891  PipeClose                                                            
0000f8bd  SockPcbAttach                                                        
0000f8e9  _LLIExpListRemove                                                    
0000f915  _LLITimeoutFlush                                                     
0000f941  _RtExpListRemove                                                     
0000f96d  ti_sysbios_knl_Clock_doTick__I                                       
0000f999  ti_sysbios_knl_Queue_construct                                       
0000f9c9  ti_sysbios_knl_Task_restore__E                                       
0000f9f5  xdc_runtime_Text_cordText__E                                         
0000fa21  GPIODirModeSet                                                       
0000fa4b  PBMQ_deq                                                             
0000fac9  xdc_runtime_System_putchar__I                                        
0000faf5  BindFindByNet                                                        
0000fb1d  LLIFree                                                              
0000fb45  NC_SystemClose                                                       
0000fb6d  NIMUCreatePacket                                                     
0000fb95  NIMUPacketService                                                    
0000fc35  VLANInit                                                             
0000fc5d  dhcpPacketReceive                                                    
0000fcb1  ti_sysbios_knl_Clock_addI__E                                         
0000fcd9  ti_sysbios_knl_Swi_Module_startup__E                                 
0000fd01  CfgEntryInfo                                                         
0000fd27  EMACPHYRead                                                          
0000fd4d  EMACPHYWrite                                                         
0000fd73  RawEthSockClose                                                      
0000fd99  ti_ndk_config_udp_init                                               
0000fdbf  ti_sysbios_family_arm_m3_Hwi_pendSV__I                               
0000fde3  ti_sysbios_family_arm_m3_Hwi_return                                  
0000fde5  xdc_runtime_System_avprintf__E                                       
0000fe0d  BindFindByHost                                                       
0000fe31  BindGetIFByDBCast                                                    
0000fe55  EMACSnow_pkt_service                                                 
0000fe9d  ExecTimer                                                            
0000fec1  NIMUFindByIndex                                                      
0000fee5  RTCAddHook                                                           
0000ff09  RawEthSockPcbFind                                                    
0000ff51  RtSetTimeout                                                         
0000ff75  SockPcbCleanup                                                       
0000ff99  TcpPrListen                                                          
0000ffbd  TcpTimeoutWait2                                                      
00010005  ti_sysbios_BIOS_errorRaiseHook__I                                    
00010029  ti_sysbios_BIOS_registerRTSLock__I                                   
0001004d  ti_sysbios_BIOS_removeRTSLock__I                                     
00010071  ti_sysbios_BIOS_startFunc__I                                         
00010095  ti_sysbios_BIOS_RtsGateProxy_Object__delete__S                       
00010095  ti_sysbios_gates_GateMutex_Object__delete__S                         
00010095  ti_sysbios_heaps_HeapMem_Module_GateProxy_Object__delete__S          
000100b9  ti_sysbios_knl_Clock_Module_startup__E                               
000100e1  ti_sysbios_knl_Semaphore_Instance_init__E                            
00010105  ti_sysbios_knl_Semaphore_Object__delete__S                           
00010129  ti_sysbios_knl_Task_restoreHwi__E                                    
0001014d  xdc_runtime_System_vprintf__E                                        
00010171  CfgEntryRef                                                          
000101d9  ti_sysbios_family_arm_lm4_Timer_write__I                             
000101fb  xdc_runtime_SysMin_output__I                                         
0001021d  NC_BootComplete                                                      
0001025d  RTCRemoveHook                                                        
0001027d  TcpTimeoutRemove                                                     
000102bd  ti_sysbios_BIOS_rtsLock__I                                           
000102dd  ti_sysbios_family_arm_m3_Hwi_Object__delete__S                       
000102dd  ti_sysbios_hal_Hwi_HwiProxy_Object__delete__S                        
000102fd  ti_sysbios_family_arm_m3_Hwi_excHandlerAsm__I                        
00010321  ti_sysbios_family_arm_m3_Hwi_excHandler__I                           
00010341  ti_sysbios_gates_GateHwi_Object__delete__S                           
00010341  xdc_runtime_Main_Module_GateProxy_Object__delete__S                  
00010341  xdc_runtime_System_Module_GateProxy_Object__delete__S                
00010361  ti_sysbios_heaps_HeapMem_Object__delete__S                           
00010361  xdc_runtime_Memory_HeapProxy_Object__delete__S                       
00010381  ti_sysbios_knl_Idle_run__E                                           
000103a1  ti_sysbios_knl_Semaphore_Object__destruct__S                         
000103c1  ti_sysbios_knl_Swi_Object__delete__S                                 
000103e1  ti_sysbios_knl_Task_Object__delete__S                                
00010401  xdc_runtime_Registry_findById__E                                     
00010421  xdc_runtime_SysMin_Module_startup__E                                 
00010441  list_remove                                                          
0001049b  ti_sysbios_family_xxx_Hwi_switchAndRunFunc                           
000104b9  BindFindByIF                                                         
000104f1  NDK_sprintf                                                          
0001050d  NIMUAddHeader                                                        
00010529  SockPrDetach                                                         
00010545  TaskDestroy                                                          
0001057d  ti_ndk_config_global_taskCreateHook                                  
00010599  ti_sysbios_gates_GateMutex_Instance_init__E                          
000105b5  ti_sysbios_knl_Queue_Object__destruct__S                             
000105d1  ti_sysbios_knl_Queue_put__E                                          
000105f1  ti_sysbios_knl_Task_enter__I                                         
0001060d  xdc_runtime_Error_raiseX__E                                          
00010629  xdc_runtime_Memory_valloc__E                                         
00010645  xdc_runtime_SysMin_exit__E                                           
00010645  xdc_runtime_System_SupportProxy_exit__E                              
00010661  xdc_runtime_System_abort__E                                          
0001067d  BindGetIP                                                            
00010697  SockSetOOBMark                                                       
000106b1  fdint_getfdt                                                         
000106cb  ti_sysbios_family_arm_m3_Hwi_Handle__label__S                        
000106cb  ti_sysbios_hal_Hwi_HwiProxy_Handle__label__S                         
000106e5  ti_sysbios_gates_GateHwi_Handle__label__S                            
000106e5  xdc_runtime_Main_Module_GateProxy_Handle__label__S                   
000106e5  xdc_runtime_System_Module_GateProxy_Handle__label__S                 
000106ff  ti_sysbios_BIOS_RtsGateProxy_Handle__label__S                        
000106ff  ti_sysbios_gates_GateMutex_Handle__label__S                          
000106ff  ti_sysbios_heaps_HeapMem_Module_GateProxy_Handle__label__S           
00010719  ti_sysbios_heaps_HeapMem_Handle__label__S                            
00010719  xdc_runtime_Memory_HeapProxy_Handle__label__S                        
00010733  ti_sysbios_knl_Swi_Handle__label__S                                  
0001074d  ti_sysbios_knl_Task_Handle__label__S                                 
00010769  ti_sysbios_knl_Task_sleepTimeout__I                                  
00010783  xdc_runtime_System_aprintf__E                                        
0001079d  xdc_runtime_System_printf__E                                         
000107b9  EMACSnow_emacSend                                                    
000107d1  IPRtChange                                                           
000107e9  RawEthSockPcbCleanup                                                 
000108d9  TcpTimeoutAdd                                                        
000108f1  _args_main                                                           
00010909  dhcpSocketClose                                                      
00010921  list_add                                                             
00010939  strcmp                                                               
00010951  ti_sysbios_BIOS_rtsUnlock__I                                         
00010969  ti_sysbios_family_arm_lm4_Timer_Module__startupDone__F               
00010969  ti_sysbios_family_arm_lm4_Timer_Module__startupDone__S               
00010969  ti_sysbios_knl_Clock_TimerProxy_Module__startupDone__S               
00010981  ti_sysbios_family_arm_m3_Hwi_Module__startupDone__F                  
00010981  ti_sysbios_family_arm_m3_Hwi_Module__startupDone__S                  
00010981  ti_sysbios_hal_Hwi_HwiProxy_Module__startupDone__S                   
00010999  ti_sysbios_family_arm_m3_TaskSupport_swap__E                         
00010999  ti_sysbios_knl_Task_SupportProxy_swap__E                             
000109a5  ti_sysbios_knl_Task_swapReturn                                       
000109b1  ti_sysbios_gates_GateMutex_leave__E                                  
000109c9  xdc_runtime_Error_check__E                                           
000109e1  xdc_runtime_System_exit__E                                           
000109f9  xdc_runtime_Text_ropeText__E                                         
00010a11  EMACReset                                                            
00010a27  EMACRxEnable                                                         
00010a3d  EMACTxEnable                                                         
00010a53  fdint_freefdt                                                        
00010a69  ti_sysbios_BIOS_exitFunc__I                                          
00010aab  xdc_runtime_System_vsprintf__E                                       
00010ac1  BindIPHost2IF                                                        
00010ad5  FlashUserGet                                                         
00010ae9  NC_NetStop                                                           
00010afd  NDK_hookExit                                                         
00010b11  NIMUSendPacket                                                       
00010b25  NtRemoveNetwork                                                      
00010b39  RawEthSockPcbInit                                                    
00010b4d  TimerFree                                                            
00010b9d  strcpy                                                               
00010bb1  strlen                                                               
00010bc5  ti_ndk_config_global_taskExitHook                                    
00010bd9  ti_sysbios_family_arm_m3_Hwi_Object__get__S                          
00010bf1  ti_sysbios_family_arm_m3_Hwi_switchFromBootStack__E                  
00010bf1  ti_sysbios_hal_Hwi_HwiProxy_switchFromBootStack__E                   
00010bf1  ti_sysbios_hal_Hwi_switchFromBootStack__E                            
00010c05  ti_sysbios_heaps_HeapMem_Object__get__S                              
00010c19  ti_sysbios_knl_Swi_Object__get__S                                    
00010c2d  ti_sysbios_knl_Task_Object__first__S                                 
00010c41  ti_sysbios_knl_Task_Object__next__S                                  
00010c55  GPIOPinTypeEthernetLED                                               
00010c67  SockPrAttach                                                         
00010c79  SockSetOOBData                                                       
00010c8b  inet_addr                                                            
00010ca1  ti_sysbios_hal_Hwi_Module_startup__E                                 
00010cb3  EMACTxDMADescriptorListSet                                           
00010cb9  ti_sysbios_knl_Semaphore_reset__E                                    
00010ccb  xdc_runtime_Startup_exec__I                                          
00010cdd  ti_catalog_arm_cortexm4_tiva_ce_Boot_init__I                         
00010ced  BindIF2IPHost                                                        
00010cfd  BindIFNet2IPHost                                                     
00010d0d  EMACFrameFilterSet                                                   
00010d1d  ExecHRef                                                             
00010d2d  NC_IPUpdate                                                          
00010d3d  NIMUGetRsvdSizeInfo                                                  
00010d61  ti_sysbios_BIOS_getCpuFreq__E                                        
00010d71  ti_sysbios_BIOS_setThreadType__E                                     
00010d81  osi_start                                                            
00010d81  ti_sysbios_BIOS_start__E                                             
00010d91  ti_sysbios_family_arm_m3_TaskSupport_glue                            
00010da1  ti_sysbios_gates_GateMutex_Instance_finalize__E                      
00010db1  ti_sysbios_knl_Semaphore_Instance_finalize__E                        
00010dc1  ti_sysbios_knl_Swi_disable__E                                        
00010dd1  ti_sysbios_knl_Task_Object__get__S                                   
00010de1  osi_TaskDisable                                                      
00010de1  ti_sysbios_knl_Task_disable__E                                       
00010df1  xdc_runtime_Gate_leaveSystem__E                                      
00010e01  xdc_runtime_Memory_free__E                                           
00010e11  xdc_runtime_SysMin_ready__E                                          
00010e11  xdc_runtime_System_SupportProxy_ready__E                             
00010e21  xdc_runtime_System_vsnprintf__E                                      
00010e31  xdc_runtime_Text_visitRope__I                                        
00010e41  EMACSnow_emacioctl                                                   
00010e4f  ExecLowResource                                                      
00010e5d  GPIOIntStatus                                                        
00010e6b  __TI_decompress_none                                                 
00010e79  ti_sysbios_knl_Idle_loop__E                                          
00010e89  ti_sysbios_knl_Queue_empty__E                                        
00010e99  BindGetFirst                                                         
00010ea5  CfgSetDefault                                                        
00010eb1  EMACSnow_init                                                        
00010ebd  NDK_hookInit                                                         
00010ec9  NIMUSetRsvdSizeInfo                                                  
00010ed5  NotifyLowResource                                                    
00010ee1  PBM_close                                                            
00010eed  SemDelete                                                            
00010ef9  _llTimerShutdown                                                     
00010f05  _register_lock                                                       
00010f11  _register_unlock                                                     
00010f29  __TI_zero_init                                                       
00010f35  llTimerGetStartTime                                                  
00010f41  ti_sysbios_BIOS_getThreadType__E                                     
00010f51  ti_sysbios_family_arm_lm4_Timer_getMaxTicks__E                       
00010f5d  ti_sysbios_family_arm_m3_Hwi_Params__init__S                         
00010f5d  ti_sysbios_hal_Hwi_HwiProxy_Params__init__S                          
00010f69  OEMSysCritOn                                                         
00010f69  ti_sysbios_family_arm_m3_Hwi_disableFxn__E                           
00010f69  ti_sysbios_hal_Hwi_HwiProxy_disable__E                               
00010f79  ti_sysbios_family_arm_m3_TaskSupport_checkStack__E                   
00010f79  ti_sysbios_knl_Task_SupportProxy_checkStack__E                       
00010f89  ti_sysbios_family_arm_m3_TaskSupport_getStackAlignment__E            
00010f89  ti_sysbios_knl_Task_SupportProxy_getStackAlignment__E                
00010f99  ti_sysbios_gates_GateHwi_enter__E                                    
00010fa5  ti_sysbios_knl_Clock_Params__init__S                                 
00010fb1  ti_sysbios_knl_Clock_getTicks__E                                     
00010fbd  ti_sysbios_knl_Queue_Object__get__S                                  
00010fc9  ti_sysbios_knl_Semaphore_Params__init__S                             
00010fd5  ti_sysbios_knl_Task_Params__init__S                                  
00010fe1  ti_sysbios_knl_Task_getIdleTask__E                                   
00010ff1  ti_sysbios_knl_Task_self__E                                          
00010ffd  xdc_runtime_Error_init__E                                            
00011009  xdc_runtime_Gate_enterSystem__E                                      
00011015  xdc_runtime_Memory_calloc__E                                         
00011021  xdc_runtime_Memory_getMaxDefaultTypeAlign__E                         
0001102d  fdint_signalevent                                                    
00011037  fdint_signaltimeout                                                  
00011041  xdc_runtime_Memory_HeapProxy_alloc__E                                
0001104b  xdc_runtime_Memory_HeapProxy_free__E                                 
00011055  EK_TM4C1294XL_initGPIO                                               
0001105d  EMACTxDMAPollDemand                                                  
0001106d  TaskBlock                                                            
00011075  ti_sysbios_family_arm_lm4_Timer_masterDisable__I                     
00011081  ti_sysbios_family_arm_m3_Hwi_doSwiRestore__I                         
00011089  ti_sysbios_family_arm_m3_Hwi_startup__E                              
00011089  ti_sysbios_hal_Hwi_HwiProxy_startup__E                               
00011089  ti_sysbios_hal_Hwi_startup__E                                        
00011091  ti_sysbios_knl_Task_getHookContext__E                                
00011099  ti_sysbios_knl_Task_setHookContext__E                                
000110a1  GPIOIntClear                                                         
000110a7  GPIOPinWrite                                                         
000110ad  SysCtlDelay                                                          
000110b3  TcpPrRecv                                                            
000110b9  __xdc__init                                                          
000110c1  ti_sysbios_family_arm_m3_Hwi_doTaskRestore__I                        
000110c9  OEMSysCritOff                                                        
000110c9  ti_sysbios_family_arm_m3_Hwi_restoreFxn__E                           
000110c9  ti_sysbios_hal_Hwi_HwiProxy_restore__E                               
000110d1  ti_sysbios_gates_GateHwi_leave__E                                    
000110d9  ti_sysbios_heaps_HeapMem_isBlocking__E                               
000110e1  ti_sysbios_knl_Queue_Instance_init__E                                
000110e9  ti_sysbios_knl_Swi_startup__E                                        
000110ef  xdc_runtime_System_Module_startup__E                                 
000110f9  ti_sysbios_gates_GateHwi_query__E                                    
000110f9  xdc_runtime_Main_Module_GateProxy_query__E                           
000110f9  xdc_runtime_System_Module_GateProxy_query__E                         
00011101  ti_sysbios_BIOS_RtsGateProxy_query__E                                
00011101  ti_sysbios_gates_GateMutex_query__E                                  
00011101  ti_sysbios_heaps_HeapMem_Module_GateProxy_query__E                   
00011109  ti_sysbios_knl_Task_startup__E                                       
00011111  ti_sysbios_gates_GateHwi_Instance_init__E                            
00011119  ti_sysbios_knl_Clock_logTick__E                                      
00011121  ti_sysbios_knl_Swi_Instance_finalize__E                              
00011124  xdc_runtime_Text_charTab__A                                          
00012a41  xdc_runtime_Error_policy__C                                          
00012a42  ti_catalog_arm_cortexm4_tiva_ce_Boot_Module__id__C                   
00012c64  xdc_runtime_Text_nodeTab__A                                          
00012e88  Code2Err                                                             
00012f62  ti_sysbios_family_arm_m3_Hwi_Module__id__C                           
00012f64  ti_sysbios_knl_Task_Object__PARAMS__C                                
00012fd0  ti_sysbios_family_arm_m3_Hwi_Object__PARAMS__C                       
00013000  ti_sysbios_heaps_HeapMem_Module__FXNS__C                             
00013028  ti_sysbios_knl_Swi_Object__PARAMS__C                                 
00013050  ti_sysbios_gates_GateHwi_Module__FXNS__C                             
00013074  ti_sysbios_gates_GateMutex_Module__FXNS__C                           
00013098  ti_sysbios_heaps_HeapMem_Object__PARAMS__C                           
000130bc  ti_sysbios_knl_Clock_Object__PARAMS__C                               
000130e0  ti_sysbios_knl_Semaphore_Object__PARAMS__C                           
00013104  ti_sysbios_family_arm_m3_Hwi_Object__DESC__C                         
00013124  ti_sysbios_gates_GateHwi_Object__DESC__C                             
00013144  ti_sysbios_gates_GateMutex_Object__DESC__C                           
00013164  ti_sysbios_heaps_HeapMem_Object__DESC__C                             
00013184  ti_sysbios_knl_Clock_Object__DESC__C                                 
000131a4  ti_sysbios_knl_Queue_Object__DESC__C                                 
000131c4  ti_sysbios_knl_Semaphore_Object__DESC__C                             
000131e4  ti_sysbios_knl_Swi_Object__DESC__C                                   
00013204  ti_sysbios_knl_Task_Object__DESC__C                                  
00013224  xdc_runtime_Startup_sfxnTab__A                                       
00013244  EMAC_config                                                          
00013274  ti_ndk_config_Global_rawPageSize                                     
00013278  ti_ndk_config_Global_rawPageCount                                    
0001327c  ti_ndk_config_Global_smallest                                        
00013280  ti_ndk_config_Global_largest                                         
00013284  ti_ndk_config_Global_numFrameBuf                                     
00013288  ti_ndk_config_Global_sizeFrameBuf                                    
0001328c  ti_sysbios_gates_GateHwi_Object__PARAMS__C                           
000132a4  ti_sysbios_gates_GateMutex_Object__PARAMS__C                         
000132bc  ti_sysbios_knl_Queue_Object__PARAMS__C                               
000132d4  ti_sysbios_knl_Task_hooks__A                                         
000132ec  GPIOTiva_config                                                      
00013300  xdc_runtime_Startup_firstFxns__A                                     
00013314  emacHWAttrs                                                          
00013324  xdc_runtime_Startup_sfxnRts__A                                       
0001333c  EMACSnow_fxnTable                                                    
00013344  ti_sysbios_family_arm_m3_Hwi_excHookFuncs__A                         
0001334c  ti_sysbios_knl_Idle_funcList__A                                      
00013354  ti_sysbios_knl_Idle_funcList__C                                      
0001335c  ti_sysbios_knl_Task_hooks__C                                         
00013364  xdc_runtime_Startup_firstFxns__C                                     
0001336c  xdc_runtime_Startup_lastFxns__C                                      
00013374  ti_catalog_arm_cortexm4_tiva_ce_Boot_A_mustNotUseEnhancedClockMode__C
00013378  ti_catalog_arm_cortexm4_tiva_ce_Boot_Module__diagsEnabled__C         
0001337c  ti_catalog_arm_cortexm4_tiva_ce_Boot_Module__diagsIncluded__C        
00013380  ti_catalog_arm_cortexm4_tiva_ce_Boot_Module__diagsMask__C            
00013384  ti_sysbios_family_arm_lm4_Timer_enableFunc__C                        
00013388  ti_sysbios_family_arm_lm4_Timer_numTimerDevices__C                   
0001338c  ti_sysbios_family_arm_lm4_Timer_startupNeeded__C                     
00013390  ti_sysbios_family_arm_m3_Hwi_E_NMI__C                                
00013394  ti_sysbios_family_arm_m3_Hwi_E_alreadyDefined__C                     
00013398  ti_sysbios_family_arm_m3_Hwi_E_busFault__C                           
0001339c  ti_sysbios_family_arm_m3_Hwi_E_debugMon__C                           
000133a0  ti_sysbios_family_arm_m3_Hwi_E_hardFault__C                          
000133a4  ti_sysbios_family_arm_m3_Hwi_E_memFault__C                           
000133a8  ti_sysbios_family_arm_m3_Hwi_E_noIsr__C                              
000133ac  ti_sysbios_family_arm_m3_Hwi_E_reserved__C                           
000133b0  ti_sysbios_family_arm_m3_Hwi_E_svCall__C                             
000133b4  ti_sysbios_family_arm_m3_Hwi_E_usageFault__C                         
000133b8  ti_sysbios_family_arm_m3_Hwi_NUM_INTERRUPTS__C                       
000133bc  ti_sysbios_family_arm_m3_Hwi_Object__count__C                        
000133c0  ti_sysbios_family_arm_m3_Hwi_ccr__C                                  
000133c4  ti_sysbios_family_arm_m3_Hwi_excHandlerFunc__C                       
000133c8  ti_sysbios_family_arm_m3_Hwi_excHookFuncs__C                         
000133cc  ti_sysbios_family_arm_m3_Hwi_nullIsrFunc__C                          
000133d0  ti_sysbios_family_arm_m3_Hwi_priGroup__C                             
000133d4  ti_sysbios_family_arm_m3_TaskSupport_stackAlignment__C               
000133d8  ti_sysbios_gates_GateMutex_Instance_State_sem__O                     
000133dc  ti_sysbios_hal_Hwi_E_stackOverflow__C                                
000133e0  ti_sysbios_heaps_HeapMem_E_memory__C                                 
000133e4  ti_sysbios_heaps_HeapMem_Module__gateObj__C                          
000133e8  ti_sysbios_heaps_HeapMem_Object__count__C                            
000133ec  ti_sysbios_heaps_HeapMem_reqAlign__C                                 
000133f0  ti_sysbios_knl_Clock_Module_State_clockQ__O                          
000133f4  ti_sysbios_knl_Semaphore_Instance_State_pendQ__O                     
000133f8  ti_sysbios_knl_Swi_Object__count__C                                  
000133fc  ti_sysbios_knl_Task_E_deleteNotAllowed__C                            
00013400  ti_sysbios_knl_Task_E_spOutOfBounds__C                               
00013404  ti_sysbios_knl_Task_E_stackOverflow__C                               
00013408  ti_sysbios_knl_Task_Module_State_inactiveQ__O                        
0001340c  ti_sysbios_knl_Task_Module_State_terminatedQ__O                      
00013410  ti_sysbios_knl_Task_Object__count__C                                 
00013414  ti_sysbios_knl_Task_Object__heap__C                                  
00013418  ti_sysbios_knl_Task_allBlockedFunc__C                                
0001341c  ti_sysbios_knl_Task_defaultStackHeap__C                              
00013420  ti_sysbios_knl_Task_defaultStackSize__C                              
00013424  ti_sysbios_knl_Task_numConstructedTasks__C                           
00013428  xdc_runtime_Assert_E_assertFailed__C                                 
0001342c  xdc_runtime_Core_A_initializedParams__C                              
00013430  xdc_runtime_Core_Module__diagsEnabled__C                             
00013434  xdc_runtime_Core_Module__diagsIncluded__C                            
00013438  xdc_runtime_Core_Module__diagsMask__C                                
0001343c  xdc_runtime_Error_E_memory__C                                        
00013440  xdc_runtime_Error_Module__diagsEnabled__C                            
00013444  xdc_runtime_Error_Module__diagsIncluded__C                           
00013448  xdc_runtime_Error_Module__diagsMask__C                               
0001344c  xdc_runtime_Error_Module__loggerFxn8__C                              
00013450  xdc_runtime_Error_Module__loggerObj__C                               
00013454  xdc_runtime_Error_policyFxn__C                                       
00013458  xdc_runtime_Error_raiseHook__C                                       
0001345c  xdc_runtime_IGateProvider_Interface__BASE__C                         
00013460  xdc_runtime_IHeap_Interface__BASE__C                                 
00013464  xdc_runtime_IModule_Interface__BASE__C                               
00013468  xdc_runtime_Log_L_error__C                                           
0001346c  xdc_runtime_Memory_defaultHeapInstance__C                            
00013470  xdc_runtime_Startup_execImpl__C                                      
00013474  xdc_runtime_Startup_maxPasses__C                                     
00013478  xdc_runtime_Startup_sfxnRts__C                                       
0001347c  xdc_runtime_Startup_sfxnTab__C                                       
00013480  xdc_runtime_SysMin_bufSize__C                                        
00013484  xdc_runtime_SysMin_outputFunc__C                                     
00013488  xdc_runtime_System_Module__gateObj__C                                
0001348c  xdc_runtime_System_abortFxn__C                                       
00013490  xdc_runtime_System_exitFxn__C                                        
00013494  xdc_runtime_System_extendFxn__C                                      
00013498  xdc_runtime_System_maxAtexitHandlers__C                              
0001349c  xdc_runtime_Text_charTab__C                                          
000134a0  xdc_runtime_Text_nameEmpty__C                                        
000134a4  xdc_runtime_Text_nameStatic__C                                       
000134a8  xdc_runtime_Text_nameUnknown__C                                      
000134ac  xdc_runtime_Text_nodeTab__C                                          
000134b0  xdc_runtime_Text_visitRopeFxn__C                                     
000134b4  ti_sysbios_hal_Hwi_Module__id__C                                     
000134b6  ti_sysbios_heaps_HeapMem_Module__id__C                               
000134b8  ti_sysbios_knl_Task_Module__id__C                                    
000134ba  xdc_runtime_Core_Module__id__C                                       
000134bc  xdc_runtime_Error_Module__loggerDefined__C                           
000134be  xdc_runtime_Error_maxDepth__C                                        
000134c0  xdc_runtime_Memory_Module__id__C                                     
000134c2  xdc_runtime_SysMin_flushAtExit__C                                    
000134c4  xdc_runtime_Text_charCnt__C                                          
000134c6  xdc_runtime_Text_isLoaded__C                                         
000134c8  xdc_runtime_Text_registryModsLastId__C                               
000134ca  xdc_runtime_Text_unnamedModsLastId__C                                
000134d0  __TI_static_base__                                                   
00013834  __TI_Handler_Table_Base                                              
00013840  __TI_Handler_Table_Limit                                             
00013850  __TI_CINIT_Base                                                      
00013868  __TI_CINIT_Limit                                                     
20000000  ti_sysbios_family_arm_m3_Hwi_ramVectors                              
20000380  ti_sysbios_heaps_HeapMem_Instance_State_0_buf__A                     
20005380  ti_ndk_config_Global_pit                                             
20005428  ti_ndk_config_Global_pitBuffer                                       
20009c28  _ICMPIn                                                              
20009c74  PBMQ_free                                                            
20009c80  ti_ndk_config_Global_pBufMem                                         
2000d880  ti_ndk_config_Global_pHdrMem                                         
2000db78  ti_sysbios_knl_Task_Instance_State_0_stack__A                        
2000e178  ti_sysbios_knl_Task_Instance_State_1_stack__A                        
2000e378  ti_sysbios_family_arm_m3_Hwi_dispatchTable                           
2000e6d8  __CIOBUF_                                                            
2000e8f8  tcps                                                                 
2000ec14  xdc_runtime_SysMin_Module_State_0_outbuf__A                          
2000ec94  ips                                                                  
2000ecfc  nimu_mcb                                                             
2000ed60  _ICMPOut                                                             
2000edec  vlan_mcb                                                             
2000ee38  udps                                                                 
2000ee5c  BlockCount                                                           
2000ee78  BlockMax                                                             
2000ee94  PageCount                                                            
2000eeb0  PageMax                                                              
2000eecc  stkEvent                                                             
2000ef08  raweths                                                              
2000ef18  raws                                                                 
2000ef28  tpseudo                                                              
2000ef34  upseudo                                                              
2000ef40  emacObjects                                                          
2000ef48  parmbuf                                                              
2000ef74  _IGMPInDiscard                                                       
2000ef78  _IGMPInQuery                                                         
2000ef7c  _IGMPInQueryGroup                                                    
2000ef80  _IGMPInResponse                                                      
2000ef84  _IGMPOutResponse                                                     
2000ef88  g_ulStatus                                                           
2000ef9c  raweth_pcb                                                           
2000efa0  ti_sysbios_knl_Task_Instance_State_0_hookEnv__A                      
2000efa4  ti_sysbios_knl_Task_Instance_State_1_hookEnv__A                      
2000efa8  _ipcfg                                                               
2000f05c  ti_sysbios_knl_Task_Object__table__V                                 
2000f0f4  ti_sysbios_knl_Swi_Module_State_0_readyQ__A                          
2000f174  ti_sysbios_knl_Task_Module_State_0_readyQ__A                         
2000f242  ti_sysbios_family_arm_m3_Hwi_Module_State_0_excActive__A             
2000f244  ti_sysbios_knl_Task_Module__state__V                                 
2000f308  ti_sysbios_family_arm_lm4_Timer_Module_State_0_device__A             
2000f348  ti_sysbios_family_arm_lm4_Timer_Object__table__V                     
2000f388  ti_sysbios_gates_GateMutex_Object__table__V                          
2000f3f4  ti_sysbios_family_arm_m3_Hwi_Module__state__V                        
2000f428  enablePrefetch                                                       
2000f42c  phyCounter                                                           
2000f45a  xdc_runtime_Error_Module__state__V                                   
2000f48c  ti_sysbios_knl_Swi_Object__table__V                                  
2000f4bc  ti_sysbios_knl_Clock_Module__state__V                                
2000f4e8  pstrMsgName                                                          
2000f510  _oscfg                                                               
2000f534  PITCount                                                             
2000f538  PITUsed                                                              
2000f53c  PITHigh                                                              
2000f558  ti_sysbios_BIOS_Module__state__V                                     
2000f57c  ti_sysbios_family_arm_lm4_Timer_Module_State_0_handles__A            
2000f5b8  ti_ndk_config_Global_Id2Size                                         
2000f5d4  ti_sysbios_knl_Swi_Module__state__V                                  
2000f620  ti_ndk_config_Global_HostName                                        
2000f624  LocalIPAddr                                                          
2000f628  LocalIPMask                                                          
2000f62c  GatewayIP                                                            
2000f630  DomainName                                                           
2000f634  __xdc__init__addr                                                    
2000f638  ti_sysbios_family_arm_m3_Hwi_Object__table__V                        
2000f650  ti_sysbios_heaps_HeapMem_Object__table__V                            
2000f67c  gpioPinConfigs                                                       
2000f694  _IGMPForceVersion1                                                   
2000f69c  ti_sysbios_family_arm_lm4_Timer_Module__state__V                     
2000f6a8  xdc_runtime_SysMin_Module__state__V                                  
2000f6c0  _lock                                                                
2000f6c4  _unlock                                                              
2000f6c8  NIMUDeviceTable                                                      
2000f6d0  gpioCallbackFunctions                                                
2000f6e8  _ICMPInErrors                                                        
2000f6ec  _ICMPOutErrors                                                       
2000f6f0  _IPExecuting                                                         
2000f708  tcp_iss                                                              
2000f70c  ptTimeFirst                                                          
2000f718  ti_sysbios_family_arm_m3_Hwi_Module__root__V                         
2000f720  ti_sysbios_gates_GateHwi_Module__root__V                             
2000f728  ti_sysbios_gates_GateMutex_Module__root__V                           
2000f730  ti_sysbios_heaps_HeapMem_Module__root__V                             
2000f738  ti_sysbios_knl_Clock_Module__root__V                                 
2000f740  ti_sysbios_knl_Queue_Module__root__V                                 
2000f748  ti_sysbios_knl_Semaphore_Module__root__V                             
2000f750  ti_sysbios_knl_Swi_Module__root__V                                   
2000f758  ti_sysbios_knl_Task_Module__root__V                                  
2000f760  xdc_runtime_Registry_Module__state__V                                
2000f768  xdc_runtime_Startup_Module__state__V                                 
2000f770  xdc_runtime_System_Module_State_0_atexitHandlers__A                  
2000f778  xdc_runtime_System_Module__state__V                                  
2000f780  macAddress                                                           
2000f7a0  main_func_sp                                                         
2000f7a8  _IPReasmPtr                                                          
2000f7b8  ti_sysbios_family_arm_m3_Hwi_Module_State_0_excContext__A            
2000f7bc  ti_sysbios_family_arm_m3_Hwi_Module_State_0_excStack__A              
2000f7c0  ti_sysbios_gates_GateHwi_Object__table__V                            
2000f7c4  ti_sysbios_knl_Task_Module_State_0_idleTask__A                       
2000f7c8  xdc_runtime_Memory_Module__state__V                                  
2000f7d0  __stack                                                              
2000ffd0  __STACK_END                                                          
e000e000  ti_sysbios_family_arm_m3_Hwi_nvic                                    
ffffffff  __TI_pprof_out_hndl                                                  
ffffffff  __TI_prof_data_size                                                  
ffffffff  __TI_prof_data_start                                                 
ffffffff  __binit__                                                            
ffffffff  __c_args__                                                           
ffffffff  binit                                                                
UNDEFED   SHT$$INIT_ARRAY$$Base                                                
UNDEFED   SHT$$INIT_ARRAY$$Limit                                               

[976 symbols]
